
 Start        Length  Name               Class

 0001:0002    04C2H   Calmira            CODE
 0001:04C4    06B3H   Logon              CODE
 0001:0B77    024DH   Splash             CODE
 0001:0DC4    0446H   About              CODE
 0001:120A    15BCH   Referenc           CODE
 0001:27C6    080EH   Shorts             CODE
 0001:2FD4    0735H   Iconic             CODE
 0001:3709    070FH   FourDOS            CODE
 0001:3E18    01D5H   Incsrch            CODE
 0001:3FED    0012H   CalMsgs            CODE
 0002:0002    32A7H   Settings           CODE
 0002:32A9    05F9H   Progress           CODE
 0002:38A2    024DH   Select             CODE
 0002:3AEF    0318H   Filter             CODE
 0002:3E07    0179H   Askdrop            CODE
 0002:3F80    0048H   Tabs               CODE
 0003:0002    2DC7H   Directry           CODE
 0003:2DC9    0782H   VerInfo            CODE
 0003:354B    033BH   Replace            CODE
 0003:3886    0749H   OpenFile           CODE
 0004:0002    89B6H   IconWin            CODE
 0005:0002    1F88H   FileProp           CODE
 0005:1F8A    181BH   FileMan            CODE
 0005:37A5    036AH   GotoFld            CODE
 0005:3B0F    049AH   Binprop            CODE
 0006:0002    1A38H   Desk               CODE
 0006:1A3A    2011H   Wastebin           CODE
 0006:3A4B    050EH   Tips               CODE
 0006:3F59    0099H   WinProcs           CODE
 0007:0002    2574H   FileFind           CODE
 0007:2576    0C9AH   Fsysprop           CODE
 0007:3210    0CB4H   DeskProp           CODE
 0007:3EC4    00FCH   CalColor           CODE
 0008:0002    297BH   Start              CODE
 0008:297D    05BCH   Password           CODE
 0008:2F39    0548H   Alias              CODE
 0008:3481    05C2H   Shutdown           CODE
 0008:3A43    05A3H   ProgConv           CODE
 0009:0002    2E81H   Compsys            CODE
 0009:2E83    06D6H   Runprog            CODE
 0009:3559    08FAH   Refedit            CODE
 0009:3E53    0183H   Environs           CODE
 000A:0002    248FH   Tree               CODE
 000A:2491    1A0DH   Sysprop            CODE
 000A:3E9E    00D6H   ObjList            CODE
 000B:0002    5583H   Task               CODE
 000C:0002    1533H   Taskman            CODE
 000C:1535    0BA1H   Taskprop           CODE
 000C:20D6    17FEH   Slider             CODE
 000C:38D4    0551H   ScrTree            CODE
 000C:3E25    0153H   SysMenu            CODE
 000D:0002    299BH   Strtprop           CODE
 000D:299D    0BF3H   MenuEdit           CODE
 000D:3590    09F9H   IconDlg            CODE
 000E:0002    1A7FH   Spin               CODE
 000E:1A81    0BC7H   ChkList            CODE
 000E:2648    0823H   Diskprop           CODE
 000E:2E6B    08D2H   Win95Pie           CODE
 000E:373D    058DH   Internet           CODE
 000E:3CCA    021DH   Hooks              CODE
 000E:3EE7    0119H   CalForm            CODE
 000F:0002    3944H   DdeMan             CODE
 000F:3946    06AFH   ApHolder           CODE
 0010:0002    59CDH   Outline            CODE
 0011:0002    128BH   TabPanel           CODE
 0011:128D    0235H   LabelSel           CODE
 0011:14C2    02A4H   SortHdr            CODE
 0011:1766    0AA6H   PathCmbo           CODE
 0011:220C    0A39H   NetDlgs            CODE
 0011:2C45    02EBH   DynaMenu           CODE
 0011:2F30    069AH   StylSped           CODE
 0011:35CA    0625H   DropServ           CODE
 0011:3BEF    03F4H   Registry           CODE
 0012:0002    169FH   MultiGrd           CODE
 0012:16A1    08C2H   BarGauge           CODE
 0012:1F63    160CH   Resource           CODE
 0012:356F    0856H   ExtForm            CODE
 0012:3DC5    0124H   DragDrop           CODE
 0013:0002    03BBH   DropClnt           CODE
 0013:03BD    0124H   Streamer           CODE
 0013:04E1    0A37H   Drives             CODE
 0013:0F18    2875H   Mask               CODE
 0013:378D    0158H   PicBtn             CODE
 0013:38E5    0543H   IniFiles           CODE
 0014:0002    7ECFH   Grids              CODE
 0015:0002    0889H   Profile            CODE
 0015:088B    1350H   Files              CODE
 0015:1BDB    12B0H   MiscUtil           CODE
 0015:2E8B    0853H   Clipbrd            CODE
 0015:36DE    0564H   TypInfo            CODE
 0016:0002    0A55H   Strings            CODE
 0016:0A57    331AH   TabNotBk           CODE
 0017:0002    3B9AH   Dialogs            CODE
 0018:0002    2FBFH   Buttons            CODE
 0019:0002    5542H   ExtCtrls           CODE
 001A:0002    68F1H   StdCtrls           CODE
 001B:0002    733BH   Graphics           CODE
 001C:0002    2337H   Menus              CODE
 001D:0002    6F1AH   Controls           CODE
 001E:0002    7E71H   Forms              CODE
 001F:0002    0AFBH   Printers           CODE
 0020:0002    54C6H   Classes            CODE
 0021:0002    3634H   SysUtils           CODE
 0022:0002    208DH   System             CODE
 0023:0000    2E06H   DATA               DATA

  Address         Publics by Value

 0001:0022       LoadAndRun
 0001:012E       RunCmdLine
 0001:01C4       @
 0001:0742       CheckForLogon
 0001:2754       @
 0001:33F4       MakeDriveName
 0001:3C47       MergeDescriptionFiles
 0001:3DEF       @
 0001:3FED       @
 0002:01A6       LoadSettings
 0002:051B       LoadBinProp
 0002:05ED       SaveBinProp
 0002:07B1       LoadDeskProp
 0002:0C76       SaveDeskProp
 0002:1159       LoadFileSysProp
 0002:19C0       SaveFileSysProp
 0002:1F20       LoadStartProp
 0002:209C       SaveStartProp
 0002:22DF       LoadSystemProp
 0002:2662       SaveSystemProp
 0002:2931       LoadTaskProp
 0002:2C76       SaveTaskProp
 0002:2E84       AnnounceSettingsChanged
 0002:2FA0       WritePathDetermined
 0002:3294       @
 0003:2D82       @
 0004:88FB       @
 0005:1FB7       NoToAll
 0005:1FE9       YesToAll
 0005:2229       CopyFile
 0005:2366       MoveFile
 0005:25E8       CreateDirectory
 0005:2655       ExitDirectory
 0005:26D0       RemoveDirectory
 0005:26F2       CopyDirectory
 0005:28D8       MoveDirectory
 0005:2AD9       DeleteDirectory
 0005:2BD8       EraseFile
 0005:2D1D       ProcessFiles
 0005:2FF0       OpenURL
 0005:3158       DefaultExec
 0005:3458       DefaultExecCommand
 0005:351D       OpenFileWith
 0005:3654       ExtensionIn
 0005:3697       ConfirmFolder
 0005:3718       IsPrintManager
 0005:3768       PrintFile
 0005:378A       BackgroundProcess
 0005:38EF       GotoFolder
 0006:3F4F       @
 0006:3F59       GlobalAllocPtr
 0006:3F7B       GlobalReAllocPtr
 0006:3FAC       GlobalFreePtr
 0006:3FCE       GetInstanceModule
 0007:242B       FileFindExecute
 0007:3EC4       IdentToCalColor
 0007:3F3C       StringToCalColor
 0007:3F86       GetCalColorValues
 0008:2736       ExtractStartInfo
 0008:2802       PackStartInfo
 0008:2B7F       EncryptPassword
 0008:2BF7       DecryptPassword
 0008:2C81       IsValidLogin
 0009:0952       IsDialogModal
 0009:097A       CheckDialogModal
 0009:1536       KeyCommand
 0009:1E6E       ProvideLastIcon
 0009:305E       RunExecute
 0009:3891       ExtractIconFile
 0009:38DC       ExtractIconIndex
 0009:3E53       EnvironSubst
 0009:3FC1       @
 000A:22A7       OpenExplorer
 000A:23EE       SelectFolder
 000B:0A2A       IsProperTaskWindow
 000C:0426       OpenTaskManager
 000D:295D       @
 000E:2636       @
 000E:2DFF       DiskPropExecute
 000E:37BD       IsURL
 000E:3ED2       @
 000F:3922       @
 0011:1754       @
 0011:2B49       IsShared
 0011:2BCA       @
 0012:342A       ReplaceNodropCursor
 0012:3457       RestoreNodropCursor
 0012:3483       LoadResources
 0012:355A       @
 0013:0394       @
 0013:04E1       DriveNumber
 0013:04FE       WinDriveNumber
 0013:0524       DetectDrives
 0013:0605       SystemDrivesChanged
 0013:0656       FindDriveType
 0013:06C3       GuessDriveType
 0013:06F9       GetDriveFlags
 0013:072F       IsDriveString
 0013:076F       IsCDROM
 0013:078B       IsRAMDrive
 0013:07E5       GetNetworkVolume
 0013:0A87       GetVolumeLabel
 0013:0B21       DeleteVolumeLabel
 0013:0C0A       SetVolumeLabel
 0013:0DB2       CDDiskSize
 0013:0F0E       @
 0013:1485       MaskGetMaskSave
 0013:1526       MaskGetMaskBlank
 0013:38C5       PicBtnGlyphsChanged
 0014:7EB7       @
 0015:0A71       FindFiles
 0015:0ABE       HDirectoryExists
 0015:0B21       FDirectoryExists
 0015:0BBB       FFileExists
 0015:0C77       FFileCreate
 0015:0D97       FFileOpen
 0015:0EEA       FileCopy
 0015:109B       FileExecute
 0015:1114       DirInfo
 0015:120A       IsAncestorDir
 0015:1274       IsValidFilename
 0015:133C       ShowCmdsEx
 0015:1375       QualifiedFilename
 0015:13B9       MakeValidFilename
 0015:1441       WildcardMatch
 0015:1543       MangleFilename
 0015:16D7       CouldBeFolder
 0015:171B       ExpandFoldername
 0015:17E4       MinimizeName
 0015:196E       CutFirstDirectory
 0015:1A7C       DirectoryExists
 0015:1B18       ForceDirectories
 0015:1B86       @
 0015:1BDB       Min
 0015:1BED       Max
 0015:1BFF       Border3D
 0015:1C35       RecessBevel
 0015:1C6B       Control3D
 0015:1CB3       PlaySound
 0015:1CFC       Intersects
 0015:1D25       NormalizeRect
 0015:1D5F       TimeStampToDate
 0015:1DA5       GetRadioIndex
 0015:1DEA       SetMenuCheck
 0015:1E30       SetButtonState
 0015:1E76       GetFlag
 0015:1E97       SetFlag
 0015:1EB7       RefreshCursor
 0015:1EFC       UpdateScreen
 0015:1F38       ShowHourGlass
 0015:1F54       ShowArrow
 0015:1F6B       AddHistory
 0015:20A5       AssignHistoryText
 0015:211E       MsgDialog
 0015:2161       MsgDialogRes
 0015:218F       MsgDialogResFmt
 0015:21C5       ErrorMsgRes
 0015:21E8       ErrorMsgResFmt
 0015:2219       ShowModalDialog
 0015:2276       InitBitmap
 0015:2316       ShrinkIcon
 0015:25CC       ShadeIcon
 0015:27D7       ReplaceBitmapColors
 0015:288F       CreateBrushPattern
 0015:2980       MinimizeString
 0015:2A9B       Delay
 0015:2AD1       GetTimerCount
 0015:2AFD       CopyStringsToClipboard
 0015:2B33       ShortTimeToStr
 0015:2B58       GetMinPosition
 0015:2B84       MoveDesktopIcon
 0015:2BF4       GetHeaderDivisions
 0015:2C9A       EnableControlList
 0015:2CF9       FreeAndNil
 0015:2D24       HeightOf
 0015:2D3D       WidthOf
 0015:2D55       Trim
 0015:2DD4       GetCurrentDir
 0015:2DE7       SetCurrentDir
 0015:2E0B       CreateDir
 0015:2E2F       RemoveDir
 0015:2E79       @
 0015:369B       @
 0015:36DE       GetTypeData
 0015:36F3       GetEnumName
 0015:371F       GetEnumValue
 0015:3773       GetPropInfo
 0015:37E1       GetPropInfos
 0015:3847       IsStoredProp
 0015:3892       GetOrdProp
 0015:3922       SetOrdProp
 0015:39A2       GetStrProp
 0015:39FC       SetStrProp
 0015:3A6B       GetFloatProp
 0015:3AE3       SetFloatProp
 0015:3B7B       GetMethodProp
 0015:3BDB       SetMethodProp
 0016:0103       LowCase
 0016:0117       IsBlank
 0016:0136       Replace
 0016:0197       Capitalize
 0016:01D2       MakePath
 0016:020D       MakeDirname
 0016:0242       ExtractFileDir
 0016:0292       FormatByte
 0016:03A6       FormatByteLong
 0016:03F1       GetStrKey
 0016:042F       GetStrValue
 0016:04C3       Unformat
 0016:07CA       FileParams
 0016:0881       GetWord
 0016:092B       FirstWord
 0016:0967       StrPChar
 0016:09A3       AttrToStr
 0016:09F9       RemoveSpaces
 0016:3D47       @
 0017:2EEC       CreateMessageDialog
 0017:35E6       MessageDlg
 0017:3615       MessageDlgPos
 0017:36CF       InputQuery
 0017:3B94       @
 0018:07E1       DrawButtonFace
 0018:2FA1       @
 0019:1ECD       Frame3D
 001B:0CA5       ColorToRGB
 001B:0D43       PaletteChanged
 001B:0DAB       ColorToString
 001B:0DF3       StringToColor
 001B:0EF2       GetColorValues
 001B:0F2C       ColorToIdent
 001B:0F8F       IdentToColor
 001B:2795       MemAlloc
 001B:52CA       FreeMemoryContexts
 001B:718A       InitGraphics
 001C:04ED       ShortCut
 001C:056E       ShortCutToText
 001C:07F8       TextToShortCut
 001C:224E       NewItem
 001C:22EA       @
 001D:0A8D       InitWndProc
 001D:0B4F       FindControl
 001D:0BD1       CursorToIdent
 001D:0C3B       IdentToCursor
 001D:0CAE       GetShortHint
 001D:0D08       GetLongHint
 001D:0D61       GetCaptureControl
 001D:0DB2       SetCaptureControl
 001D:0E92       FindDragTarget
 001D:1165       DragMouseMsg
 001D:6EFF       @
 001E:0FAE       DisableTaskWindows
 001E:10B7       EnableTaskWindows
 001E:1497       DoneCtl3D
 001E:14B4       Subclass3DDlg
 001E:14D6       SetAutoSubClass
 001E:1550       MakeObjectInstance
 001E:166C       FreeObjectInstance
 001E:16B4       AllocateHWnd
 001E:1733       DeallocateHWnd
 001E:175E       KeysToShiftState
 001E:17C2       KeyDataToShiftState
 001E:1806       IsAccel
 001E:186F       GetParentForm
 001E:18C8       ValidParentForm
 001F:0AD4       @
 0020:06B2       Point
 0020:06CC       Rect
 0020:06F2       Bounds
 0020:077F       GetClass
 0020:081F       FindClass
 0020:08E2       RegisterClass
 0020:099E       RegisterClasses
 0020:0A7A       RegisterIntegerConsts
 0020:0ABC       ReadComponentRes
 0020:0BFC       LineStart
 0020:1E18       NewStrItem
 0020:1E63       DisposeStrItem
 0020:547E       @
 0021:0476       AllocMem
 0021:04A1       ReAllocMem
 0021:0574       AddExitProc
 0021:05D7       NewStr
 0021:0624       DisposeStr
 0021:0651       AssignStr
 0021:0688       AppendStr
 0021:06B5       UpperCase
 0021:06DB       LowerCase
 0021:0701       CompareStr
 0021:0730       CompareText
 0021:0781       AnsiUpperCase
 0021:07B7       AnsiLowerCase
 0021:07ED       AnsiCompareText
 0021:0824       IsValidIdent
 0021:08A9       IntToStr
 0021:08DF       IntToHex
 0021:091E       StrToInt
 0021:096F       StrToIntDef
 0021:09A4       LoadStr
 0021:09C9       FmtLoadStr
 0021:0A1A       FileOpen
 0021:0A42       FileCreate
 0021:0A69       FileAge
 0021:0A9F       FileExists
 0021:0AC7       FileGetDate
 0021:0AD7       FileSetDate
 0021:0AEC       FileGetAttr
 0021:0B15       FileSetAttr
 0021:0B77       FindFirst
 0021:0BBA       FindNext
 0021:0BE4       FindClose
 0021:0BEB       DeleteFile
 0021:0C0F       RenameFile
 0021:0C48       ChangeFileExt
 0021:0CC4       ExtractFilePath
 0021:0D17       ExtractFileName
 0021:0D6D       ExtractFileExt
 0021:0DE2       DiskFree
 0021:0DFB       DiskSize
 0021:0E16       FileDateToDateTime
 0021:0E76       DateTimeToFileDate
 0021:0F16       StrLen
 0021:0F2D       StrEnd
 0021:0F44       StrMove
 0021:0F69       StrCopy
 0021:0F8B       StrECopy
 0021:0FAE       StrLCopy
 0021:0FD6       StrPCopy
 0021:0FF4       StrPLCopy
 0021:1019       StrCat
 0021:103C       StrComp
 0021:1065       StrIComp
 0021:10A9       StrScan
 0021:10D1       StrRScan
 0021:10F8       StrPos
 0021:114B       StrUpper
 0021:1171       StrPas
 0021:1192       StrAlloc
 0021:11BF       StrBufSize
 0021:11D9       StrNew
 0021:1226       StrDispose
 0021:12A6       StrFmt
 0021:12EE       Format
 0021:1326       FmtStr
 0021:13D6       EncodeTime
 0021:141A       DecodeTime
 0021:15C9       EncodeDate
 0021:1606       DecodeDate
 0021:174B       DayOfWeek
 0021:177C       Date
 0021:17AF       Time
 0021:17F1       Now
 0021:1E88       DateTimeToString
 0021:1EAB       DateToStr
 0021:1ED0       FormatDateTime
 0021:1EF5       GetProfileStr
 0021:1F32       GetProfileChar
 0021:2071       GetFormatSettings
 0021:2286       ExceptObject
 0021:229A       ExceptAddr
 0021:2356       ShowException
 0021:2519       Abort
 0021:29C9       EnableExceptionHandler
 0021:2ACD       @
 0021:2ADD       FormatBuf
 0021:2E2D       FloatToText
 0021:30A6       FloatToTextFmt
 0021:3357       FloatToDecimal
 0021:3476       TextToFloat
 0022:04AF       FSafeDivideR
 0022:04B2       FSafeDivide
 0023:0078       ColorNames
 0023:0128       DefaultColors
 0023:0154       Programs
 0023:01A4       AllDetails
 0023:01A6       FirstRunKey
 0023:01B4       LastInstance
 0023:01B6       LastIconFile
 0023:0206       LastIconIndex
 0023:020E       DefaultDriveNames
 0023:027E       DirectoryMasks
 0023:028E       MacroDisplayMode
 0023:03F2       DefaultBin
 0023:045E       IconTable
 0023:056E       IconToRes
 0023:067E       IconToOffset
 0023:06A0       YieldDuringLoad
 0023:0964       AliasSigValue
 0023:0964       AliasSignature
 0023:09FA       NotifyNoIcons
 0023:0A6A       URLPrefixes
 0023:1032       DriveDesc
 0023:10C0       DefaultBlank
 0023:10C1       MaskFieldSeparator
 0023:10C2       MaskNoSave
 0023:10C4       ShowCmds
 0023:10C8       BackgroundProc
 0023:10DE       PicBtnGlyphs
 0023:10E0       PicBtnHeightDelta
 0023:10E2       MsgDialogSounds
 0023:10E4       MaxHistorySize
 0023:10E6       RepaintBeforeHourglass
 0023:10E8       DarkIconStretch
 0023:10E9       HQIconStretch
 0023:1118       OneItem
 0023:1122       MsgDlgButtonStyle
 0023:1123       MsgDlgGlyphs
 0023:1124       MsgDlgBtnSize
 0023:18B2       CreationControl
 0023:18B6       VBXHook
 0023:18BA       VBXPropMsg
 0023:19F0       Ctl3DBtnWndProc
 0023:19F4       Ctl3DDlgFramePaint
 0023:19F8       Ctl3DCtlColorEx
 0023:19FC       HintWindowClass
 0023:1BDC       ProcessorExceptHook
 0023:1BE0       HandleDebugInts
 0023:1BE2       EmptyStr
 0023:1BE4       NullStr
 0023:1D26       ExceptList
 0023:1D28       RaiseList
 0023:1D2A       ExceptProc
 0023:1D2E       ErrorProc
 0023:1D32       ExceptionClass
 0023:1D36       ExceptDebugPtr
 0023:1D3A       ExitProc
 0023:1D3E       ExitCode
 0023:1D40       ErrorAddr
 0023:1D44       PrefixSeg
 0023:1D46       InOutRes
 0023:1D48       RandSeed
 0023:1D4C       SelectorInc
 0023:1D4E       HeapCheck
 0023:1D52       HeapError
 0023:1D56       Test8086
 0023:1D57       FileMode
 0023:1D58       HPrevInst
 0023:1D5A       HInstance
 0023:1D5C       CmdShow
 0023:1D5E       CmdLine
 0023:1D62       HeapList
 0023:1D64       HeapLimit
 0023:1D66       HeapBlock
 0023:1D68       HeapAllocFlags
 0023:1D6A       TestFDIV
 0023:1D6C       HaltVector
 0023:1DDA       SplashForm
 0023:1DDE       ComputerCaption
 0023:1EDE       ShowSplash
 0023:1EDF       RestoreSys
 0023:1EE0       SysWinQuit
 0023:1EE1       TrackThumb
 0023:1EE2       GlobalHotkeys
 0023:1EE3       ShowDailyTips
 0023:1EE4       CompIconStart
 0023:1EE5       EnableWinScripts
 0023:1EE6       EnableDosScripts
 0023:1EE8       DosScriptFilename
 0023:1F38       WinScriptExtension
 0023:1F3D       Win95Keyboard
 0023:1F3E       ShowShutDownBMP
 0023:1F40       Browser
 0023:1F90       DefaultSort
 0023:1F91       DefaultDisplay
 0023:1F92       DefaultFilter
 0023:1FE2       IconStrings
 0023:2032       ListKBDecimals
 0023:2034       ListMBDecimals
 0023:2036       AliasExtension
 0023:203C       AliasExtensionUpper
 0023:2041       FileHints
 0023:2042       HintDelay
 0023:2044       UseDescriptions
 0023:2046       DescriptionFile
 0023:2056       DescCaptions
 0023:2057       Simul4DOS
 0023:2058       FileSysChange
 0023:2059       EnableLFN
 0023:205A       ConfirmCopyStart
 0023:205B       ConfirmMoveStart
 0023:205C       ConfirmDelStart
 0023:205D       ConfirmCopyFile
 0023:205E       ConfirmMoveFile
 0023:205F       ConfirmDelFile
 0023:2060       ConfirmReplace
 0023:2061       ConfirmProtect
 0023:2062       ConfirmCopyFolder
 0023:2063       ConfirmMoveFolder
 0023:2064       ConfirmDelFolder
 0023:2065       ConfirmNewAlias
 0023:2066       ShowBrowserToolbar
 0023:2067       ShowBrowserStatusbar
 0023:2068       FlatToolbarButtons
 0023:2069       ShortWinCaptions
 0023:206A       ShowHidSys
 0023:206B       ProgDrop
 0023:206C       FindDlgIcons
 0023:206D       AliasArrows
 0023:206E       DefDragCopy
 0023:206F       DrawShadedIcons
 0023:2070       MiniIcons
 0023:2071       HQMiniIcons
 0023:2072       UpcaseFirstChar
 0023:2073       NoRegExtensions
 0023:2074       HintDesc
 0023:2075       HintBytes
 0023:2076       HintType
 0023:2077       HintDate
 0023:2078       HintTime
 0023:2079       HintAttrib
 0023:207A       DefaultColumns
 0023:207C       InspectProg
 0023:20CC       DefaultProg
 0023:211C       UndeleteProg
 0023:216C       DiskProg
 0023:21BC       WindowOpen
 0023:21BD       SingleStatus
 0023:21BE       SaveWindows
 0023:21BF       ShortArrows
 0023:21C0       ShowDeskMenu
 0023:21C1       ExploreLastFolder
 0023:21C2       ConfirmDelShort
 0023:21C3       StickyShorts
 0023:21C4       OneClickShorts
 0023:21C5       BrowseSame
 0023:21C6       RightClose
 0023:21C7       RButtonUpClose
 0023:21C8       RunAutoClose
 0023:21C9       DesktopParent
 0023:21CA       FilePaneCols
 0023:21CC       DisableTaskbar
 0023:21CD       StayVisible
 0023:21CE       ShrinkMax
 0023:21CF       Clock24
 0023:21D0       PopupRes
 0023:21D1       PopupDate
 0023:21D2       Animate
 0023:21D3       FullAnimate
 0023:21D4       ButtonHints
 0023:21D5       ArrangeMin
 0023:21D6       HideMinApps
 0023:21D7       IconWindowTask
 0023:21D8       ExplorerTask
 0023:21D9       FullFolderPath
 0023:21DA       DocNameFirst
 0023:21DB       DocNameLower
 0023:21DC       ShowRealSysMenu
 0023:21DD       TopTaskbar
 0023:21DE       RowCount
 0023:21E0       AnimatePixels
 0023:21E2       AnimateSlowDown
 0023:21E4       BinCaption
 0023:22E4       BinAction
 0023:22E6       BinCapacity
 0023:22E8       BinIcons
 0023:22E9       DeleteToBin
 0023:22EA       StartMenu3D
 0023:22EB       ShellStartup
 0023:22EC       ShellDDE
 0023:22ED       BoldSelect
 0023:22EE       StartMouseUp
 0023:22EF       LargeRootmenu
 0023:22F0       ColouredBar
 0023:22F2       StartFile
 0023:2342       LargeItemHeight
 0023:2344       IsShell
 0023:2345       MultipleProfiles
 0023:2346       DoubleClickSpeed
 0023:2348       Sounds
 0023:234C       KeyMaps
 0023:2350       WindowPos
 0023:2354       GlobalCaptions
 0023:2358       ini
 0023:235C       FirstRun
 0023:235D       LoadFromWinDir
 0023:235E       NormalHintPause
 0023:2360       Colors
 0023:238C       DeskGrid
 0023:2390       BrowseGrid
 0023:2394       LineHeight
 0023:2396       MinAppHeight
 0023:2398       DescWidth
 0023:239A       ColumnPadding
 0023:239C       CanEditSettings
 0023:239E       GlobalFont
 0023:23A2       Layouts
 0023:2422       NumLayouts
 0023:2424       FileWritePath
 0023:2474       BasePath
 0023:24C4       DriveRef
 0023:24C8       FolderRef
 0023:24CC       FileRef
 0023:24D0       SharedDesc
 0023:24D8       ProgressBox
 0023:24DC       Xspare
 0023:24DE       YSpare
 0023:24E0       NameColWidth
 0023:24E2       SizeColWidth
 0023:24E4       TypeColWidth
 0023:24E6       DateColWidth
 0023:24E8       AttrColWidth
 0023:24EA       SampleDate
 0023:250A       SampleTime
 0023:252A       SharedObjectMenu
 0023:252E       SharedWinMenu
 0023:2588       BytesTransferred
 0023:2596       AskDropBox
 0023:259A       Desktop
 0023:259E       ReplaceBox
 0023:25A2       Bin
 0023:25AA       FindForm
 0023:25AE       FindList
 0023:26CA       StartMenu
 0023:26F4       Computer
 0023:26F8       LastErrorMode
 0023:26FA       LastDeskClick
 0023:26FE       FileSysChangeOn
 0023:2700       GotoDlg
 0023:2706       Explorer
 0023:270A       Taskbar
 0023:2826       TaskManager
 0023:282A       RunDlg
 0023:2834       StartPropDlg
 0023:2838       NewStartItems
 0023:283C       ShellDDEBuf
 0023:2840       MenuEditDlg
 0023:2844       RefEditDlg
 0023:2852       ddeMgr
 0023:2856       StartTaskMonitor
 0023:285A       StopTaskMonitor
 0023:285E       SetWndHook
 0023:2862       UnhookWndHook
 0023:2866       SetYLimit
 0023:286A       StartMouseMonitor
 0023:286E       StopMouseMonitor
 0023:2872       EnableMouseMonitor
 0023:2876       DisableMouseMonitor
 0023:287A       SetCallBackWnd
 0023:287E       SetMaxEnabled
 0023:2882       SetRCloseEnabled
 0023:2886       SetDesktopHook
 0023:288A       ReleaseDesktopHook
 0023:288E       SetKeyboardHook
 0023:2892       ReleaseKeyboardHook
 0023:2896       SetRButtonUpClose
 0023:289A       IsHotKey
 0023:289E       SetWin95KeyEnabled
 0023:28A2       StartFileMonitor
 0023:28A6       StopFileMonitor
 0023:28B0       NetDriver
 0023:28B2       ShareAsDialog
 0023:28B6       StopShareDialog
 0023:28BA       ConnectDialog
 0023:28BE       DisconnectDialog
 0023:28C2       GetShareName
 0023:28C6       Icons
 0023:28CA       FolderIcon
 0023:28CE       FileIcon
 0023:28D2       ProgIcon
 0023:28D6       DOSIcon
 0023:28DA       TinyFile
 0023:28DE       TinyFolder
 0023:28E2       TinyProg
 0023:28E6       Sizebox
 0023:28EA       ShortArrow
 0023:28EE       AliasArrow
 0023:28F2       HDropAlias
 0023:28F4       HNoDrop
 0023:28F8       Environment
 0023:28FC       WM_CALMIRA
 0023:2902       ValidDrives
 0023:293C       ApplicationPath
 0023:298C       WinPath
 0023:29DC       BytesCopied
 0023:29E0       IconMesh
 0023:29EC       CF_PICTURE
 0023:29EE       CF_COMPONENT
 0023:29F0       Clipboard
 0023:2B2C       NewStyleControls
 0023:2B4A       Application
 0023:2B4E       Screen
 0023:2B74       Printer
 0023:2B78       CurrencyString
 0023:2B80       CurrencyFormat
 0023:2B81       NegCurrFormat
 0023:2B82       ThousandSeparator
 0023:2B83       DecimalSeparator
 0023:2B84       CurrencyDecimals
 0023:2B85       DateSeparator
 0023:2B86       ShortDateFormat
 0023:2B96       LongDateFormat
 0023:2BB6       TimeSeparator
 0023:2BB8       TimeAMString
 0023:2BC0       TimePMString
 0023:2BC8       ShortTimeFormat
 0023:2BD8       LongTimeFormat
 0023:2BF8       ShortMonthNames
 0023:2C58       LongMonthNames
 0023:2D18       ShortDayNames
 0023:2D50       LongDayNames

Line numbers for Calmira(CALMIRA.DPR) segment Calmira

    95 0001:0022    99 0001:0026   100 0001:0047   101 0001:0055
   102 0001:0083   103 0001:00B3   104 0001:00E1   105 0001:0111
   106 0001:011D   107 0001:0128   108 0001:0129   114 0001:012E
   116 0001:0132   118 0001:013C   119 0001:0141   120 0001:018E
   122 0001:01AD   124 0001:01C4   125 0001:0268   128 0001:026F
   130 0001:028E   134 0001:0291   135 0001:0296   138 0001:029B
   139 0001:02A5   141 0001:02B2   142 0001:02B7   145 0001:02BC
   146 0001:02D4   147 0001:02DE   149 0001:02E5   150 0001:02EC
   154 0001:02F8   158 0001:0305   159 0001:0324   160 0001:0331
   161 0001:0350   162 0001:0368   163 0001:0380   164 0001:0398
   166 0001:03B0   167 0001:03BD   168 0001:03C8   169 0001:03D3
   171 0001:03DC   172 0001:03E7   176 0001:03F2   177 0001:03FC
   178 0001:0415   179 0001:0420   182 0001:0423   183 0001:0437
   185 0001:0480   186 0001:048D   188 0001:049F   189 0001:04AA
   190 0001:04BC

Line numbers for Logon(LOGON.PAS) segment Logon

    70 0001:0631    71 0001:0635    72 0001:067F    73 0001:06BC
    75 0001:0742    76 0001:0746    77 0001:0777    78 0001:0791
    80 0001:079B    82 0001:07D1    83 0001:07EB    84 0001:07F0
    86 0001:07FB    87 0001:0812    88 0001:082A    89 0001:084C
    90 0001:085A    91 0001:0861    93 0001:086F    94 0001:089F
    95 0001:08B7    96 0001:08C8    97 0001:08D1    98 0001:08DA
    99 0001:08EB   100 0001:0905   102 0001:0907   103 0001:0922
   104 0001:0936   105 0001:093D   106 0001:0949   107 0001:0953
   108 0001:0954   110 0001:095F   111 0001:096A   114 0001:097F
   115 0001:0983   116 0001:09B0   117 0001:09D0   118 0001:09FE
   120 0001:0A0C   121 0001:0A22   123 0001:0A4C   126 0001:0A50
   127 0001:0A54   128 0001:0A84   131 0001:0A8F   132 0001:0A93
   133 0001:0AB4   134 0001:0AC2   135 0001:0AD5   136 0001:0ADE
   137 0001:0AEB   139 0001:0B48   141 0001:0B54   142 0001:0B63
   144 0001:0B73

Line numbers for Splash(SPLASH.PAS) segment Splash

    69 0001:0CE2    70 0001:0CE5    71 0001:0D13    72 0001:0D41
    76 0001:0D45    77 0001:0D48    78 0001:0D59    82 0001:0D5D
    84 0001:0D60    86 0001:0D6F    87 0001:0D74    89 0001:0D81
    92 0001:0D85    96 0001:0D88    97 0001:0D94    98 0001:0DA5
    99 0001:0DB1   100 0001:0DC0

Line numbers for About(ABOUT.PAS) segment About

    77 0001:1001    78 0001:1005    79 0001:102B    80 0001:1039
    82 0001:104B    84 0001:106B    85 0001:107B    88 0001:10A6
    89 0001:10AA    90 0001:10DB    94 0001:113A    95 0001:1168
    96 0001:1196    98 0001:119D    99 0001:11B5   101 0001:11BA
   104 0001:11D5   105 0001:11D8   107 0001:11EA   108 0001:11F4
   111 0001:11F8   112 0001:11FB   113 0001:1206

Line numbers for Settings(SETTINGS.PAS) segment Settings

   300 0002:01A6   301 0002:01AA   303 0002:01B4   304 0002:01CD
   305 0002:01EA   306 0002:0201   307 0002:021D   308 0002:0234
   309 0002:025F   310 0002:026C   311 0002:0283   312 0002:0290
   313 0002:02A7   314 0002:02BE   315 0002:02CB   316 0002:02E2
   317 0002:02EF   318 0002:0306   319 0002:0326   321 0002:0377
   322 0002:0392   323 0002:03AD   324 0002:03C8   325 0002:03E3
   326 0002:0419   327 0002:0435   328 0002:0450   330 0002:0469
   331 0002:046E   332 0002:0473   333 0002:0478   334 0002:047D
   335 0002:0482   337 0002:0487   338 0002:04AD   339 0002:04BB
   343 0002:04D4   344 0002:04E0   345 0002:04EA   346 0002:04EB
   351 0002:051B   352 0002:051F   354 0002:0529   355 0002:0555
   356 0002:0570   357 0002:058B   358 0002:05A4   360 0002:05BD
   363 0002:05ED   364 0002:05F1   366 0002:05FB   367 0002:0614
   368 0002:062F   369 0002:0649   370 0002:0661   372 0002:0679
   381 0002:07B1   382 0002:07B5   384 0002:07BF   385 0002:07D8
   386 0002:07F1   387 0002:080A   388 0002:0823   389 0002:083C
   390 0002:0855   391 0002:086E   392 0002:0887   393 0002:08A0
   394 0002:08B9   395 0002:08D2   396 0002:08EB   397 0002:0904
   399 0002:091F   400 0002:093A   401 0002:0955   402 0002:0970
   403 0002:098B   404 0002:09A6   405 0002:09AF   407 0002:09FA
   408 0002:0A13   409 0002:0A2C   410 0002:0A47   411 0002:0A5D
   412 0002:0A6B   413 0002:0A81   414 0002:0A98   415 0002:0AB1
   416 0002:0AC3   417 0002:0B42   418 0002:0B4E   419 0002:0B58
   420 0002:0B59   425 0002:0C76   426 0002:0C7A   427 0002:0C84
   428 0002:0C9C   429 0002:0CB4   430 0002:0CCC   431 0002:0CE4
   432 0002:0CFC   433 0002:0D14   434 0002:0D2C   435 0002:0D44
   436 0002:0D5C   437 0002:0D74   438 0002:0D8C   439 0002:0DA4
   440 0002:0DBC   442 0002:0DD7   443 0002:0DF1   444 0002:0E0B
   445 0002:0E25   446 0002:0E3F   447 0002:0E59   448 0002:0E62
   450 0002:0E97   457 0002:1159   458 0002:115D   460 0002:1167
   461 0002:1182   462 0002:119D   463 0002:11F2   464 0002:121D
   465 0002:1236   466 0002:1252   467 0002:126D   468 0002:1288
   469 0002:12A1   470 0002:12CC   471 0002:12E5   472 0002:12FE
   473 0002:1317   474 0002:1330   475 0002:1349   476 0002:1362
   477 0002:137B   478 0002:1394   479 0002:13AD   480 0002:13C6
   481 0002:13DF   482 0002:13F8   483 0002:1411   484 0002:142A
   485 0002:1443   486 0002:145C   487 0002:1475   488 0002:148E
   489 0002:14A7   490 0002:14C0   491 0002:14D9   492 0002:14F2
   493 0002:150B   494 0002:1524   495 0002:153D   496 0002:1556
   497 0002:156F   498 0002:1588   499 0002:15A1   500 0002:15BA
   501 0002:15D5   502 0002:15F0   503 0002:160B   504 0002:1626
   505 0002:1641   506 0002:165C   507 0002:167C   508 0002:1682
   509 0002:16AD   510 0002:16D8   511 0002:1703   513 0002:172E
   514 0002:173B   517 0002:19C0   518 0002:19C4   520 0002:19CE
   521 0002:19E9   522 0002:1A04   523 0002:1A1D   524 0002:1A36
   525 0002:1A4E   526 0002:1A68   527 0002:1A82   528 0002:1A9C
   529 0002:1AB4   530 0002:1ACC   531 0002:1AE4   532 0002:1AFC
   533 0002:1B14   534 0002:1B2C   535 0002:1B44   536 0002:1B5C
   537 0002:1B74   538 0002:1B8C   539 0002:1BA4   540 0002:1BBC
   541 0002:1BD4   542 0002:1BEC   543 0002:1C04   544 0002:1C1C
   545 0002:1C34   546 0002:1C4C   547 0002:1C64   548 0002:1C7C
   549 0002:1C94   550 0002:1CAC   551 0002:1CC4   552 0002:1CDC
   553 0002:1CF4   554 0002:1D0C   555 0002:1D24   556 0002:1D3C
   557 0002:1D54   558 0002:1D6C   559 0002:1D84   560 0002:1D9C
   561 0002:1DB4   562 0002:1DCC   563 0002:1DE4   564 0002:1DFC
   565 0002:1E14   566 0002:1E31   567 0002:1E4A   568 0002:1E63
   569 0002:1E7C   571 0002:1E95   576 0002:1F20   577 0002:1F24
   579 0002:1F2E   580 0002:1F47   581 0002:1F60   582 0002:1F79
   583 0002:1F92   584 0002:1FAB   585 0002:1FC4   586 0002:1FDD
   587 0002:1FF8   589 0002:2011   592 0002:209C   593 0002:20A0
   595 0002:20AA   596 0002:20C2   597 0002:20DA   598 0002:20F2
   599 0002:210A   600 0002:2122   601 0002:213A   602 0002:2152
   603 0002:216C   605 0002:2184   610 0002:22DF   611 0002:22E3
   613 0002:22ED   614 0002:2319   615 0002:2332   616 0002:234B
   617 0002:2364   618 0002:237D   619 0002:2396   620 0002:23AF
   621 0002:23C8   622 0002:23E1   623 0002:23FA   624 0002:2413
   625 0002:242C   626 0002:2445   628 0002:245E   629 0002:2477
   631 0002:247C   633 0002:2495   634 0002:24C0   636 0002:24EC
   637 0002:2522   639 0002:254D   642 0002:2662   643 0002:2666
   645 0002:2670   646 0002:2689   647 0002:26A1   648 0002:26B9
   649 0002:26D1   650 0002:26E9   651 0002:2701   652 0002:2719
   653 0002:2731   654 0002:2749   655 0002:2761   656 0002:2779
   657 0002:2791   658 0002:27A9   659 0002:27C1   660 0002:27DA
   661 0002:27F3   662 0002:280B   664 0002:2823   669 0002:2931
   670 0002:2935   672 0002:293F   673 0002:2958   674 0002:2971
   675 0002:298A   676 0002:29A3   677 0002:29BC   678 0002:29D5
   679 0002:29EE   680 0002:2A07   681 0002:2A20   682 0002:2A39
   683 0002:2A52   684 0002:2A6B   685 0002:2A84   686 0002:2A9D
   687 0002:2AB6   688 0002:2ACF   690 0002:2AEA   691 0002:2B03
   692 0002:2B26   694 0002:2B3F   695 0002:2B5A   697 0002:2B75
   700 0002:2C76   701 0002:2C7A   703 0002:2C84   704 0002:2C9C
   705 0002:2CB4   706 0002:2CCC   707 0002:2CE4   708 0002:2CFC
   709 0002:2D14   710 0002:2D2C   711 0002:2D44   712 0002:2D5C
   713 0002:2D74   714 0002:2D8C   715 0002:2DA4   716 0002:2DBC
   717 0002:2DD4   718 0002:2DEC   720 0002:2E04   721 0002:2E1C
   722 0002:2E36   724 0002:2E4E   725 0002:2E68   727 0002:2E82
   732 0002:2E84   733 0002:2E88   734 0002:2E93   736 0002:2E98
   737 0002:2EA2   738 0002:2EAD   740 0002:2EB3   741 0002:2EBE
   742 0002:2EC9   743 0002:2ED4   744 0002:2EED   745 0002:2F06
   747 0002:2F21   748 0002:2F32   749 0002:2F3C   750 0002:2F56
   751 0002:2F86   754 0002:2FA0   755 0002:2FA4   756 0002:2FD5
   757 0002:2FFB   760 0002:3062   761 0002:3066   762 0002:307D
   763 0002:3094   764 0002:30AB   765 0002:30C2   766 0002:30D9
   767 0002:30F8   769 0002:314D   771 0002:3157   772 0002:3176
   773 0002:31CB   774 0002:31E7   775 0002:3200   777 0002:320A
   778 0002:3224   779 0002:3235   780 0002:3246   781 0002:324B
   784 0002:324D   785 0002:3250   786 0002:325B   787 0002:3266
   788 0002:3271   789 0002:327C   790 0002:3287   791 0002:3292
   793 0002:3294   794 0002:3297   795 0002:329A   796 0002:32A7

Line numbers for Referenc(REFERENC.PAS) segment Referenc

   131 0001:12A4   132 0001:12B6   133 0001:12C3   134 0001:12EE
   139 0001:1305   140 0001:1309   141 0001:1331   142 0001:133E
   145 0001:134D   146 0001:1350   148 0001:136D   149 0001:1388
   151 0001:1399   154 0001:139D   155 0001:13A0   156 0001:13BE
   159 0001:13C3   160 0001:13C7   161 0001:13CE   162 0001:13D6
   163 0001:1410   165 0001:1414   166 0001:141E   168 0001:1469
   169 0001:146B   171 0001:1492   177 0001:14A2   178 0001:14A6
   180 0001:14C0   181 0001:14DE   184 0001:14EC   186 0001:14F7
   187 0001:1513   189 0001:1516   190 0001:1539   194 0001:1544
   195 0001:154B   196 0001:1573   197 0001:1581   198 0001:159D
   199 0001:15A9   200 0001:15D8   201 0001:15D9   202 0001:15DB
   203 0001:15F2   206 0001:15F4   207 0001:1604   208 0001:1612
   209 0001:1622   210 0001:162E   211 0001:1638   213 0001:1639
   214 0001:163C   215 0001:165E   216 0001:1688   217 0001:169A
   218 0001:16B3   219 0001:16CA   220 0001:16DA   227 0001:170B
   231 0001:170F   235 0001:173A   236 0001:175A   239 0001:177A
   240 0001:17A5   241 0001:17C6   242 0001:17FE   243 0001:1800
   245 0001:181E   246 0001:1849   247 0001:185C   248 0001:187D
   249 0001:18AF   250 0001:18B6   251 0001:18F0   252 0001:18FA
   254 0001:190F   264 0001:191C   265 0001:1920   266 0001:195C
   267 0001:1967   268 0001:1999   269 0001:19B8   270 0001:19BF
   271 0001:19EE   273 0001:1A04   274 0001:1A28   275 0001:1A40
   276 0001:1A53   277 0001:1A5A   278 0001:1A76   280 0001:1A95
   281 0001:1AB7   282 0001:1AB9   283 0001:1ADB   284 0001:1ADD
   286 0001:1B03   288 0001:1B07   289 0001:1B0B   291 0001:1B27
   292 0001:1B50   293 0001:1B71   294 0001:1B86   295 0001:1B8A
   296 0001:1B8C   297 0001:1B90   300 0001:1B94   301 0001:1B97
   302 0001:1B9E   305 0001:1BA2   306 0001:1BA5   308 0001:1BAF
   309 0001:1BB3   311 0001:1BC2   320 0001:1BC6   321 0001:1BC9
   322 0001:1BED   329 0001:1C00   330 0001:1C04   331 0001:1C09
   332 0001:1C0E   333 0001:1C2D   335 0001:1C37   336 0001:1C54
   337 0001:1C85   338 0001:1CA6   339 0001:1CC7   340 0001:1CE8
   341 0001:1CFA   342 0001:1D16   343 0001:1D7A   345 0001:1D87
   346 0001:1DF0   347 0001:1E11   348 0001:1E27   350 0001:1E3E
   351 0001:1E4C   353 0001:1E5E   354 0001:1E63   355 0001:1E72
   356 0001:1E9E   357 0001:1EBF   358 0001:1EEB   359 0001:1F0C
   361 0001:1F16   362 0001:1F63   363 0001:1F84   364 0001:1F9A
   366 0001:1FB0   368 0001:1FBB   369 0001:1FC7   370 0001:1FD1
   372 0001:1FD2   375 0001:1FD9   376 0001:1FDD   377 0001:1FFB
   378 0001:2005   381 0001:2009   382 0001:200D   383 0001:2017
   385 0001:2020   386 0001:202E   387 0001:203F   388 0001:2050
   389 0001:206C   390 0001:2088   391 0001:20A4   392 0001:20B5
   393 0001:20D1   394 0001:20ED   395 0001:20FE   397 0001:210F
   398 0001:2116   401 0001:211A   402 0001:211E   404 0001:2127
   405 0001:2138   406 0001:2149   407 0001:215C   408 0001:2178
   409 0001:2194   410 0001:21B0   411 0001:21C1   412 0001:21DD
   413 0001:21F9   414 0001:220A   416 0001:221C   419 0001:2280
   420 0001:2284   421 0001:228E   423 0001:2297   424 0001:22B6
   425 0001:22E1   426 0001:230C   427 0001:2337   428 0001:2356
   429 0001:2381   430 0001:23AC   431 0001:23CB   433 0001:23E8
   434 0001:23EF   437 0001:2445   438 0001:2449   439 0001:2452
   440 0001:2471   441 0001:2497   442 0001:24BD   443 0001:24E3
   444 0001:2501   445 0001:2527   446 0001:254D   447 0001:256B
   449 0001:2587   454 0001:258C   455 0001:2590   458 0001:25C0
   459 0001:25D2   460 0001:25E4   461 0001:25E6   462 0001:25F7
   463 0001:2621   464 0001:2632   465 0001:2639   466 0001:2659
   467 0001:2679   468 0001:2699   470 0001:26B7   471 0001:26CE
   473 0001:2727   476 0001:272E   477 0001:2731   478 0001:273C
   479 0001:2747   480 0001:2752   482 0001:2754   483 0001:2757
   484 0001:276E   485 0001:2777   486 0001:278E   487 0001:2797
   488 0001:27AE   489 0001:27B7   490 0001:27C4

Line numbers for Shorts(SHORTS.PAS) segment Shorts

    84 0001:2972    88 0001:2976    89 0001:2987    91 0001:298F
    92 0001:299B    93 0001:29C6    94 0001:29D9    95 0001:29DB
    96 0001:29EF    97 0001:2A01    98 0001:2A13   101 0001:2A17
   102 0001:2A1A   103 0001:2A33   108 0001:2A37   109 0001:2A3B
   110 0001:2A45   111 0001:2A6F   114 0001:2A73   118 0001:2A76
   119 0001:2A83   120 0001:2A9C   123 0001:2AA0   124 0001:2AA3
   125 0001:2AB2   128 0001:2AB6   129 0001:2ABA   130 0001:2AE5
   136 0001:2AE9   137 0001:2AED   138 0001:2AF6   139 0001:2AFD
   140 0001:2B0A   141 0001:2B27   152 0001:2B2C   153 0001:2B36
   154 0001:2B66   157 0001:2B8D   158 0001:2B9D   159 0001:2BA2
   162 0001:2BA6   163 0001:2BA9   164 0001:2BB9   165 0001:2BC0
   166 0001:2BF4   169 0001:2BF8   170 0001:2BFB   171 0001:2C10
   175 0001:2C14   176 0001:2C17   178 0001:2C62   181 0001:2C66
   182 0001:2C69   183 0001:2C70   188 0001:2C74   189 0001:2C78
   192 0001:2C86   193 0001:2C90   194 0001:2C9D   195 0001:2CAA
   196 0001:2CB7   197 0001:2CC3   198 0001:2CD6   199 0001:2CE8
   200 0001:2CF4   201 0001:2D07   202 0001:2D19   203 0001:2D2C
   204 0001:2D3E   205 0001:2D51   207 0001:2D65   208 0001:2D82
   209 0001:2D9F   212 0001:2DA3   213 0001:2DA6   214 0001:2DC5
   217 0001:2DC9   221 0001:2DCD   224 0001:2E31   227 0001:2E35
   228 0001:2E39   229 0001:2E52   230 0001:2E73   233 0001:2E80
   234 0001:2E83   235 0001:2E9D   237 0001:2EE2   238 0001:2EEE
   241 0001:2EFB   242 0001:2EFF   243 0001:2F19   245 0001:2F29
   246 0001:2F43   248 0001:2F5D   251 0001:2F61   252 0001:2F64
   253 0001:2F73   256 0001:2F77   257 0001:2F7A   258 0001:2F90
   262 0001:2F94   264 0001:2F97   266 0001:2FA6   267 0001:2FAB
   269 0001:2FB8   271 0001:2FC1   272 0001:2FC6   274 0001:2FD0

Line numbers for Iconic(ICONIC.PAS) segment Iconic

   128 0001:30AA   129 0001:30AD   130 0001:30CF   138 0001:30D3
   139 0001:30D7   141 0001:30E9   142 0001:30FF   143 0001:310E
   144 0001:311B   145 0001:3130   146 0001:314F   147 0001:315C
   148 0001:3187   149 0001:3198   151 0001:319C   152 0001:31AA
   155 0001:31D4   156 0001:31E2   158 0001:3206   160 0001:320C
   161 0001:3222   163 0001:3231   165 0001:3246   166 0001:3254
   169 0001:327E   172 0001:3282   173 0001:3286   174 0001:32A4
   175 0001:32BD   180 0001:32CD   181 0001:32ED   183 0001:332D
   184 0001:3332   185 0001:336B   186 0001:3370   187 0001:3386
   188 0001:3394   189 0001:33A6   190 0001:33C9   191 0001:33D9
   192 0001:33E5   193 0001:33EF   194 0001:33F0   199 0001:33F4
   200 0001:33F8   201 0001:3404   221 0001:3430   222 0001:3436
   224 0001:3466   225 0001:349E   228 0001:34A2   229 0001:34B4
   230 0001:34C1   231 0001:34D1   232 0001:34E2   233 0001:350A
   234 0001:3528   237 0001:3542   238 0001:3546   239 0001:356F
   242 0001:3573   243 0001:3577   244 0001:3592   247 0001:3596
   248 0001:359A   250 0001:35A3   251 0001:35A8   252 0001:35C4
   254 0001:35D9   257 0001:35DD   258 0001:35EF   259 0001:3604
   260 0001:3628   261 0001:3643   262 0001:366C   265 0001:3683
   266 0001:3686   267 0001:3694   268 0001:36A1   271 0001:36B0
   272 0001:36B3   273 0001:36CC   276 0001:36D0   277 0001:36D3
   278 0001:36DB   279 0001:36F0   280 0001:3705

Line numbers for FourDOS(FOURDOS.PAS) segment FourDOS

    87 0001:37C2    88 0001:37C5    89 0001:37CF    90 0001:37D7
    97 0001:37DD   100 0001:37E1   101 0001:37E8   102 0001:37FB
   103 0001:380A   104 0001:381D   107 0001:3823   108 0001:3846
   109 0001:3859   110 0001:387F   114 0001:3882   116 0001:38A6
   117 0001:38C9   118 0001:38DC   120 0001:3902   121 0001:3917
   122 0001:393D   124 0001:393F   126 0001:394B   133 0001:3957
   134 0001:395B   135 0001:396A   136 0001:397D   138 0001:3983
   139 0001:399D   143 0001:39EF   145 0001:3A13   146 0001:3A36
   147 0001:3A49   149 0001:3A72   152 0001:3A8C   153 0001:3AA1
   155 0001:3AF0   157 0001:3AF2   158 0001:3AFE   159 0001:3B07
   161 0001:3B3D   167 0001:3B41   168 0001:3B45   169 0001:3B51
   170 0001:3B59   173 0001:3B82   174 0001:3B88   175 0001:3BAC
   176 0001:3BB6   181 0001:3BBA   182 0001:3BBE   184 0001:3BC8
   185 0001:3BEE   188 0001:3C0A   189 0001:3C16   190 0001:3C25
   192 0001:3C31   194 0001:3C39   201 0001:3C47   202 0001:3C7B
   203 0001:3C93   204 0001:3CAB   205 0001:3CBC   206 0001:3CCE
   207 0001:3CDC   208 0001:3CED   209 0001:3CFD   211 0001:3D1C
   212 0001:3D41   213 0001:3D55   214 0001:3D9E   215 0001:3DA8
   216 0001:3DB8   217 0001:3DC4   218 0001:3DCF   219 0001:3DDA
   220 0001:3DDB   223 0001:3DDF   224 0001:3DE2   225 0001:3DED
   227 0001:3DEF   228 0001:3DF2   229 0001:3DFF   230 0001:3E16

Line numbers for Directry(DIRECTRY.PAS) segment Directry

   350 0003:02BD   352 0003:02CE   353 0003:02DB   354 0003:02F6
   355 0003:0309   356 0003:031E   357 0003:0328   358 0003:033A
   359 0003:033F   360 0003:034E   361 0003:0355   362 0003:0364
   365 0003:037B   366 0003:037E   367 0003:038C   368 0003:039C
   369 0003:03A9   372 0003:03B8   373 0003:03BB   374 0003:03D1
   377 0003:03D5   378 0003:03D8   379 0003:03EB   382 0003:03EF
   384 0003:03F3   385 0003:0406   386 0003:0419   387 0003:0421
   390 0003:0428   391 0003:042C   392 0003:043F   393 0003:0447
   398 0003:044E   401 0003:0452   402 0003:0457   403 0003:0461
   405 0003:0469   406 0003:0474   407 0003:0499   408 0003:04A2
   409 0003:04A8   410 0003:04AA   411 0003:04B0   416 0003:04B7
   420 0003:04BB   421 0003:04D5   423 0003:04F9   424 0003:0502
   425 0003:0506   426 0003:0508   427 0003:0510   428 0003:0514
   441 0003:0521   442 0003:0525   443 0003:0532   444 0003:053F
   445 0003:0560   446 0003:0583   447 0003:0591   448 0003:05CB
   449 0003:05E7   450 0003:05FF   451 0003:0628   452 0003:0649
   453 0003:0655   454 0003:065F   455 0003:0662   456 0003:0683
   457 0003:0693   470 0003:069D   471 0003:06A1   472 0003:06A6
   473 0003:06B3   474 0003:06C1   475 0003:06CB   476 0003:06DB
   477 0003:06F9   479 0003:070E   480 0003:074F   481 0003:0755
   482 0003:079D   484 0003:07A3   485 0003:07CC   486 0003:07DB
   487 0003:07E8   488 0003:07F5   489 0003:07F7   490 0003:0801
   491 0003:080A   492 0003:0816   493 0003:0821   494 0003:0822
   499 0003:0826   501 0003:082A   502 0003:0832   503 0003:0874
   506 0003:087E   507 0003:0881   508 0003:0896   509 0003:08A2
   515 0003:08A6   516 0003:08AA   517 0003:08D4   518 0003:08E2
   519 0003:0918   520 0003:0926   522 0003:095B   523 0003:0965
   524 0003:0976   525 0003:0985   526 0003:098F   528 0003:0999
   539 0003:09A3   540 0003:09A7   541 0003:09AC   542 0003:09C2
   543 0003:09D0   544 0003:09DA   545 0003:09E7   547 0003:0A05
   548 0003:0A0F   549 0003:0A4D   550 0003:0A59   551 0003:0A63
   552 0003:0A64   555 0003:0A68   556 0003:0A6B   557 0003:0A89
   558 0003:0AA6   559 0003:0AAE   575 0003:0AB2   576 0003:0AB6
   578 0003:0ACD   579 0003:0AE9   580 0003:0AF0   581 0003:0AF8
   582 0003:0B15   584 0003:0B32   585 0003:0B3F   586 0003:0B47
   587 0003:0B50   588 0003:0B61   593 0003:0B65   594 0003:0B77
   595 0003:0B84   597 0003:0B8D   598 0003:0BB1   599 0003:0BC1
   600 0003:0BD7   602 0003:0BF1   603 0003:0BFF   604 0003:0C04
   605 0003:0C49   608 0003:0C60   609 0003:0C64   610 0003:0C96
   613 0003:0C9A   614 0003:0C9E   615 0003:0CCD   618 0003:0CD1
   619 0003:0CD5   620 0003:0CE3   621 0003:0D0B   622 0003:0D53
   637 0003:0D59   638 0003:0D5D   640 0003:0D67   641 0003:0D9B
   642 0003:0DAD   643 0003:0DBD   644 0003:0DBF   645 0003:0DC6
   651 0003:0DCC   652 0003:0DD0   653 0003:0E05   654 0003:0E19
   655 0003:0E72   656 0003:0E98   657 0003:0EAB   662 0003:0EB1
   663 0003:0EB5   664 0003:0ECA   665 0003:0EE5   667 0003:0F1A
   668 0003:0F2C   670 0003:0F3C   674 0003:0F40   675 0003:0F44
   676 0003:0F52   677 0003:0F7F   678 0003:0FA8   685 0003:0FAC
   686 0003:0FB0   688 0003:0FB9   689 0003:0FCC   690 0003:0FDB
   691 0003:0FF2   692 0003:1026   693 0003:1037   694 0003:103B
   695 0003:1053   697 0003:1059   698 0003:106F   700 0003:107E
   701 0003:109D   703 0003:10B2   715 0003:10B6   716 0003:10BA
   717 0003:10C9   719 0003:10D4   720 0003:10E7   721 0003:10F7
   722 0003:110E   723 0003:111A   724 0003:1124   725 0003:1163
   726 0003:1175   727 0003:117A   728 0003:1196   730 0003:119C
   731 0003:11B3   733 0003:11C4   734 0003:11DD   735 0003:11F4
   736 0003:120B   737 0003:121E   738 0003:1225   740 0003:122F
   741 0003:124C   742 0003:1276   743 0003:12AB   745 0003:12B2
   747 0003:12BC   748 0003:12EF   749 0003:1322   750 0003:1362
   751 0003:1395   752 0003:13AD   754 0003:13B4   757 0003:13C5
   759 0003:13CF   760 0003:13F6   761 0003:141A   763 0003:1453
   765 0003:145A   766 0003:147E   768 0003:14B3   770 0003:14BA
   773 0003:14C1   774 0003:14DF   775 0003:1514   777 0003:151B
   778 0003:1529   780 0003:154C   783 0003:1550   784 0003:1554
   785 0003:1571   786 0003:1597   798 0003:159B   799 0003:159F
   800 0003:15E3   801 0003:160A   805 0003:1611   806 0003:1615
   807 0003:1620   808 0003:162E   809 0003:1632   810 0003:165A
   811 0003:1677   812 0003:167A   814 0003:16C7   817 0003:1714
   828 0003:171C   829 0003:1720   831 0003:1738   832 0003:1746
   835 0003:177F   837 0003:17D3   839 0003:17DA   840 0003:17F8
   842 0003:1807   843 0003:181B   844 0003:1830   845 0003:1844
   846 0003:185B   847 0003:185D   850 0003:18B9   853 0003:18BD
   854 0003:18C1   855 0003:18E5   856 0003:18F3   857 0003:1909
   858 0003:192C   861 0003:1930   862 0003:1934   864 0003:193D
   865 0003:1959   867 0003:1977   879 0003:197E   880 0003:1981
   881 0003:199D   882 0003:19B3   884 0003:19C6   885 0003:19CA
   886 0003:19D1   888 0003:19DF   889 0003:19FC   890 0003:1A19
   892 0003:1A36   893 0003:1A6E   895 0003:1A78   896 0003:1AA3
   897 0003:1ACE   899 0003:1B06   900 0003:1B2F   901 0003:1B58
   902 0003:1B75   905 0003:1B7A   906 0003:1B7D   907 0003:1B85
   908 0003:1BA6   919 0003:1BAB   920 0003:1BAF   921 0003:1BB7
   923 0003:1BBE   924 0003:1BFD   926 0003:1C23   929 0003:1C28
   930 0003:1C2C   931 0003:1C34   933 0003:1C3B   934 0003:1C77
   936 0003:1C9D   939 0003:1CA1   940 0003:1CA5   941 0003:1CAC
   942 0003:1CEE   945 0003:1CF2   946 0003:1CF6   947 0003:1CFD
   948 0003:1D3C   951 0003:1D41   952 0003:1D44   953 0003:1D4C
   954 0003:1D53   955 0003:1D74   960 0003:1D78   961 0003:1D7C
   962 0003:1D9A   964 0003:1DE5   965 0003:1DFB   970 0003:1E02
   971 0003:1E06   972 0003:1E3D   973 0003:1E4C   978 0003:1E50
   979 0003:1E54   982 0003:1E8F   983 0003:1E9F   984 0003:1ED1
   986 0003:1EEB   991 0003:1EEF   992 0003:1EF3   994 0003:1F35
   995 0003:1F45   996 0003:1F56   997 0003:1F85   999 0003:1F95
  1002 0003:1F99  1003 0003:1F9D  1004 0003:1FDB  1005 0003:1FEA
  1008 0003:1FEE  1009 0003:1FF2  1010 0003:2017  1011 0003:2026
  1017 0003:202A  1018 0003:202E  1019 0003:203C  1020 0003:206E
  1022 0003:20AC  1023 0003:20C8  1024 0003:20D9  1026 0003:20E8
  1027 0003:2110  1028 0003:2137  1029 0003:2147  1032 0003:2152
  1035 0003:2156  1037 0003:215A  1038 0003:218E  1043 0003:2195
  1044 0003:2199  1047 0003:21D1  1048 0003:21D7  1049 0003:21DD
  1050 0003:2209  1051 0003:220F  1052 0003:222E  1053 0003:2230
  1054 0003:223A  1056 0003:225B  1057 0003:227A  1060 0003:227E
  1061 0003:2282  1062 0003:22AC  1067 0003:22B0  1068 0003:22C1
  1069 0003:22D9  1070 0003:22E5  1073 0003:22FC  1074 0003:22FF
  1075 0003:230B  1076 0003:2318  1079 0003:2327  1080 0003:232A
  1082 0003:2334  1083 0003:233F  1085 0003:2347  1092 0003:234B
  1093 0003:234F  1094 0003:2357  1095 0003:2373  1099 0003:2389
  1101 0003:23A3  1102 0003:23CD  1103 0003:23D0  1104 0003:23E9
  1107 0003:2402  1108 0003:241D  1109 0003:242B  1112 0003:2433
  1114 0003:2435  1115 0003:2450  1116 0003:246E  1117 0003:247D
  1120 0003:2482  1121 0003:2486  1122 0003:24B6  1125 0003:24C0
  1127 0003:24C3  1128 0003:24CF  1129 0003:24DD  1130 0003:24EC
  1131 0003:24F8  1132 0003:2504  1133 0003:2505  1136 0003:2509
  1137 0003:250D  1138 0003:2516  1139 0003:251D  1140 0003:252D
  1141 0003:2535  1143 0003:253C  1146 0003:2540  1148 0003:2544
  1149 0003:255E  1152 0003:2565  1153 0003:2569  1154 0003:2586
  1155 0003:2597  1158 0003:259C  1159 0003:25A0  1160 0003:25E5
  1165 0003:25E9  1166 0003:25FA  1167 0003:2612  1168 0003:2624
  1171 0003:263B  1172 0003:263E  1173 0003:265D  1176 0003:2661
  1177 0003:2665  1178 0003:2680  1181 0003:2684  1182 0003:2688
  1183 0003:26A3  1184 0003:26B8  1185 0003:26DB  1190 0003:26DF
  1191 0003:26E3  1192 0003:270D  1193 0003:2734  1194 0003:2751
  1195 0003:277A  1196 0003:2796  1197 0003:27A4  1198 0003:27D8
  1204 0003:27DC  1205 0003:27E0  1206 0003:27F3  1208 0003:282E
  1209 0003:283E  1210 0003:288C  1211 0003:289B  1213 0003:28A5
  1216 0003:28A9  1217 0003:28AD  1218 0003:28BC  1219 0003:2902
  1225 0003:2906  1228 0003:290A  1229 0003:291D  1230 0003:2938
  1232 0003:2976  1233 0003:2986  1234 0003:29D4  1235 0003:29E3
  1236 0003:29ED  1238 0003:29F5  1241 0003:29F9  1242 0003:29FD
  1243 0003:2A0C  1244 0003:2A27  1245 0003:2A5E  1246 0003:2A6D
  1249 0003:2A71  1250 0003:2A75  1251 0003:2A90  1252 0003:2AAE
  1253 0003:2ABD  1258 0003:2AC1  1259 0003:2AC5  1260 0003:2AE1
  1261 0003:2AEB  1262 0003:2AFA  1263 0003:2B1A  1266 0003:2B1E
  1267 0003:2B22  1268 0003:2B3F  1269 0003:2B50  1272 0003:2B54
  1273 0003:2B58  1274 0003:2B8C  1277 0003:2B93  1278 0003:2B97
  1280 0003:2BA0  1281 0003:2BA7  1282 0003:2BB7  1283 0003:2BBF
  1285 0003:2BC6  1288 0003:2BCA  1289 0003:2BCE  1290 0003:2BD2
  1293 0003:2BE3  1294 0003:2BE7  1295 0003:2C32  1300 0003:2C36
  1301 0003:2C47  1302 0003:2C54  1303 0003:2C61  1304 0003:2C67
  1305 0003:2C6D  1308 0003:2C84  1309 0003:2C87  1310 0003:2C91
  1311 0003:2C9E  1312 0003:2CA4  1313 0003:2CAA  1314 0003:2CB0
  1317 0003:2CB4  1318 0003:2CB8  1319 0003:2CCB  1321 0003:2CE2
  1322 0003:2CE9  1323 0003:2CED  1324 0003:2D03  1327 0003:2D05
  1328 0003:2D0C  1329 0003:2D10  1331 0003:2D17  1332 0003:2D1C
  1334 0003:2D3C  1335 0003:2D47  1336 0003:2D4F  1337 0003:2D5B
  1341 0003:2D6B  1344 0003:2D72  1345 0003:2D75  1346 0003:2D80
  1348 0003:2D82  1349 0003:2D85  1350 0003:2D9C  1351 0003:2DAB
  1352 0003:2DBA  1353 0003:2DC7

Line numbers for Progress(PROGRESS.PAS) segment Progress

    82 0002:344A    83 0002:344D    84 0002:3460    87 0002:3464
    88 0002:3468    89 0002:3476    90 0002:3495    91 0002:34A3
    92 0002:34D9    93 0002:34E7    94 0002:351D    95 0002:352E
    96 0002:353F   101 0002:3553   102 0002:3557   103 0002:3562
   105 0002:3569   106 0002:357D   107 0002:358C   108 0002:359B
   109 0002:35AF   110 0002:35BE   111 0002:35D2   112 0002:35E1
   115 0002:35E3   116 0002:35F7   117 0002:3606   118 0002:3615
   119 0002:3624   121 0002:3633   122 0002:363C   123 0002:3644
   124 0002:364B   125 0002:366C   126 0002:3675   127 0002:3687
   128 0002:369C   129 0002:36A6   130 0002:36B2   133 0002:36B6
   134 0002:36B9   135 0002:36C2   138 0002:36C6   139 0002:36CA
   141 0002:36D8   142 0002:36E7   144 0002:36F9   145 0002:3706
   148 0002:370A   149 0002:370D   150 0002:3716   151 0002:3723
   152 0002:372D   153 0002:3737   158 0002:373B   160 0002:373F
   161 0002:375A   162 0002:3760   164 0002:3767   165 0002:3772
   166 0002:377D   167 0002:379C   168 0002:37BE   171 0002:37D1
   172 0002:37DC   173 0002:37EC   176 0002:37F0   177 0002:37F3
   178 0002:37FD   179 0002:3807   182 0002:381A   183 0002:381D
   184 0002:3850   187 0002:3854   188 0002:3857   189 0002:386B
   190 0002:3874   191 0002:3889   192 0002:389E

Line numbers for IconWin(ICONWIN.PAS) segment IconWin

   430 0004:0971   431 0004:0975   433 0004:0981   434 0004:09A0
   436 0004:09AA   437 0004:09AF   439 0004:09D7   441 0004:09FF
   443 0004:0A27   444 0004:0A31   445 0004:0A51   446 0004:0A71
   447 0004:0A91   448 0004:0A9B   450 0004:0AC3   452 0004:0AEB
   454 0004:0B13   456 0004:0B3B   458 0004:0B5B   459 0004:0B65
   463 0004:0B8D   465 0004:0B99   466 0004:0BB8   467 0004:0BC2
   468 0004:0BC7   469 0004:0BE7   470 0004:0C07   471 0004:0C27
   472 0004:0C31   473 0004:0C51   474 0004:0C71   475 0004:0C91
   476 0004:0CB1   477 0004:0CBB   478 0004:0CDB   479 0004:0CFB
   480 0004:0D1B   481 0004:0D25   482 0004:0D45   483 0004:0D65
   484 0004:0D6F   486 0004:0D97   490 0004:0DBF   493 0004:0DC3
   494 0004:0DC7   495 0004:0DD1   496 0004:0DE8   499 0004:0EED
   503 0004:101A   504 0004:1039   505 0004:1058   509 0004:10B5
   513 0004:111B   516 0004:1164   519 0004:11B3   522 0004:11CA
   523 0004:11CE   525 0004:11EB   526 0004:120E   527 0004:121F
   528 0004:1236   529 0004:1260   530 0004:126A   533 0004:126D
   534 0004:1286   535 0004:1295   536 0004:12A4   537 0004:12D6
   539 0004:1308   540 0004:1325   541 0004:1342   543 0004:1352
   545 0004:1359   546 0004:1368   547 0004:1377   550 0004:1386
   551 0004:138F   552 0004:139D   555 0004:13A1   556 0004:13A4
   557 0004:13B5   558 0004:13C4   559 0004:13D3   560 0004:13E2
   566 0004:13FC   568 0004:1400   569 0004:1432   571 0004:143F
   572 0004:144D   573 0004:14AA   575 0004:14B0   576 0004:14C8
   578 0004:14D1   581 0004:14DF   584 0004:14F2   585 0004:14F6
   587 0004:1579   592 0004:158A   593 0004:158E   594 0004:159D
   595 0004:15AF   597 0004:15BD   598 0004:15C6   599 0004:15D8
   600 0004:15E6   602 0004:15F1   603 0004:15FF   604 0004:160D
   605 0004:162F   606 0004:1632   608 0004:1640   610 0004:164C
   611 0004:1670   613 0004:1681   614 0004:1692   615 0004:16A0
   616 0004:16C2   619 0004:16C4   621 0004:16D3   622 0004:16F7
   624 0004:1708   625 0004:1716   627 0004:1724   628 0004:1741
   630 0004:174D   632 0004:1761   633 0004:176C   636 0004:1774
   637 0004:1784   639 0004:178E   640 0004:17A1   642 0004:17AB
   643 0004:17C6   644 0004:17ED   645 0004:17F8   647 0004:1835
   648 0004:185D   649 0004:187D   650 0004:18A0   652 0004:18C2
   653 0004:18CE   656 0004:1953   657 0004:1957   659 0004:196C
   661 0004:199A   663 0004:19C8   665 0004:19F6   667 0004:1A37
   670 0004:1A65   674 0004:1A69   675 0004:1A7B   678 0004:1A8E
   679 0004:1ABB   680 0004:1ACF   681 0004:1AEF   682 0004:1AFE
   683 0004:1B08   684 0004:1B19   686 0004:1B20   687 0004:1B2C
   688 0004:1B31   689 0004:1B33   690 0004:1B3E   691 0004:1B48
   692 0004:1B52   693 0004:1B73   694 0004:1B7D   695 0004:1B8D
   696 0004:1B97   701 0004:1BAE   702 0004:1BB2   703 0004:1BCC
   704 0004:1BD3   706 0004:1C21   708 0004:1C39   710 0004:1C56
   711 0004:1C61   713 0004:1C95   716 0004:1C97   720 0004:1CDA
   723 0004:1CDE   724 0004:1CE2   725 0004:1CF0   726 0004:1CFE
   727 0004:1D0D   728 0004:1D1C   733 0004:1D26   734 0004:1D2A
   735 0004:1D2F   736 0004:1D34   737 0004:1D46   738 0004:1D5D
   739 0004:1D73   740 0004:1D7F   742 0004:1D90   743 0004:1D9E
   744 0004:1DA0   745 0004:1DA8   751 0004:1DB2   754 0004:1DB6
   755 0004:1DC4   756 0004:1DD9   757 0004:1DEF   759 0004:1DFA
   760 0004:1E06   761 0004:1E13   762 0004:1E1F   763 0004:1E2B
   764 0004:1E37   765 0004:1E43   766 0004:1E50   767 0004:1E5F
   768 0004:1E6D   769 0004:1E6F   770 0004:1E7A   774 0004:1E98
   775 0004:1EDA   776 0004:1EF4   781 0004:1EF9   782 0004:1EFD
   783 0004:1F0C   784 0004:1F1A   785 0004:1F28   786 0004:1F59
   787 0004:1F5F   788 0004:1F8D   789 0004:1F93   790 0004:1FC1
   791 0004:1FCD   792 0004:1FFB   793 0004:2001   794 0004:202F
   795 0004:203C   797 0004:205D   799 0004:2073   802 0004:20C4
   803 0004:20C7   804 0004:20E2   805 0004:20FD   806 0004:2118
   807 0004:2133   808 0004:214E   811 0004:2152   813 0004:2156
   815 0004:2163   816 0004:216E   817 0004:217D   819 0004:2196
   820 0004:21A0   821 0004:21AF   823 0004:21B6   824 0004:21E0
   827 0004:21FB   835 0004:222B   836 0004:222F   839 0004:223D
   840 0004:2249   841 0004:227C   842 0004:22A2   843 0004:22C8
   844 0004:22FE   845 0004:2323   847 0004:2337   848 0004:233F
   849 0004:2354   851 0004:2362   852 0004:237D   853 0004:2385
   854 0004:2391   855 0004:23A0   859 0004:23B0   860 0004:23B8
   861 0004:23CC   863 0004:23DB   864 0004:23E9   866 0004:23F2
   867 0004:240A   868 0004:2449   870 0004:2463   871 0004:2484
   874 0004:2490   876 0004:249F   877 0004:24A4   878 0004:24C5
   879 0004:24E6   881 0004:2505   883 0004:2512   890 0004:2516
   891 0004:251A   892 0004:253C   893 0004:255A   895 0004:2568
   896 0004:2570   899 0004:25B4   900 0004:25EF   901 0004:2605
   902 0004:260E   904 0004:261E   906 0004:2634   907 0004:263F
   909 0004:2675   915 0004:2679   919 0004:267D   920 0004:2685
   921 0004:2697   922 0004:26AF   923 0004:26D2   924 0004:26D8
   926 0004:26E3   927 0004:2705   928 0004:270E   930 0004:2710
   931 0004:274D   932 0004:2779   933 0004:2791   941 0004:279B
   944 0004:279F   945 0004:27AD   947 0004:27CE   950 0004:2806
   951 0004:2824   954 0004:287F   956 0004:289B   963 0004:28BD
   964 0004:28D5   965 0004:28F6   966 0004:290E   967 0004:2944
   968 0004:2952   969 0004:2967   971 0004:2975   973 0004:2982
   979 0004:2986   980 0004:298A   981 0004:299B   982 0004:29B3
   983 0004:29CB   984 0004:29E0   986 0004:29F7   988 0004:2A15
   989 0004:2A41   990 0004:2A58   991 0004:2A5A   992 0004:2A72
   993 0004:2A94   994 0004:2AA6   995 0004:2ACD   998 0004:2AD1
  1001 0004:2AD4  1002 0004:2AE1  1003 0004:2AED  1004 0004:2AF2
  1005 0004:2B0D  1006 0004:2B1B  1007 0004:2B3C  1010 0004:2B51
  1011 0004:2B55  1012 0004:2B60  1013 0004:2B72  1014 0004:2B7D
  1015 0004:2B98  1016 0004:2BAF  1017 0004:2BB4  1020 0004:2BB8
  1021 0004:2BBC  1024 0004:2C75  1025 0004:2C87  1028 0004:2C8E
  1029 0004:2C92  1032 0004:2D4B  1033 0004:2D5D  1036 0004:2D64
  1037 0004:2D67  1038 0004:2D74  1039 0004:2D79  1040 0004:2D8F
  1043 0004:2DA4  1044 0004:2DA8  1045 0004:2DB3  1046 0004:2DC5
  1047 0004:2DD0  1048 0004:2DEB  1049 0004:2E02  1050 0004:2E07
  1053 0004:2E0B  1054 0004:2E0F  1057 0004:2EBC  1058 0004:2ED4
  1061 0004:2EDB  1062 0004:2EDF  1065 0004:2F8C  1066 0004:2FA4
  1069 0004:2FAB  1070 0004:2FAF  1073 0004:3030  1074 0004:3042
  1080 0004:304F  1084 0004:3053  1085 0004:306F  1087 0004:3089
  1088 0004:3091  1090 0004:3094  1091 0004:309C  1092 0004:30B8
  1094 0004:30D2  1095 0004:30E0  1096 0004:30EB  1097 0004:3107
  1099 0004:3135  1100 0004:3154  1101 0004:3180  1102 0004:318C
  1103 0004:31A3  1104 0004:31AD  1105 0004:31AE  1110 0004:31B8
  1113 0004:31BC  1115 0004:31D3  1116 0004:31DB  1118 0004:31DE
  1119 0004:31EC  1120 0004:3203  1121 0004:320B  1122 0004:3232
  1124 0004:3257  1125 0004:3265  1126 0004:3270  1127 0004:328C
  1129 0004:32BB  1130 0004:32DA  1131 0004:3307  1132 0004:3313
  1133 0004:332A  1134 0004:3334  1135 0004:333E  1136 0004:333F
  1143 0004:3343  1146 0004:3347  1147 0004:335C  1148 0004:3376
  1150 0004:3393  1151 0004:33AB  1152 0004:33C6  1153 0004:33F1
  1154 0004:340C  1155 0004:343E  1156 0004:3470  1157 0004:348B
  1158 0004:34A6  1160 0004:34C1  1163 0004:34C5  1164 0004:34C9
  1165 0004:3506  1168 0004:350A  1171 0004:350E  1173 0004:3529
  1174 0004:3541  1176 0004:3544  1177 0004:3566  1179 0004:3595
  1181 0004:35B7  1183 0004:35C8  1188 0004:35D2  1191 0004:35D6
  1193 0004:35F1  1194 0004:3609  1196 0004:360C  1197 0004:361F
  1200 0004:365A  1203 0004:36F6  1205 0004:371C  1206 0004:3722
  1207 0004:3748  1208 0004:3756  1209 0004:379F  1210 0004:37AB
  1211 0004:37BA  1212 0004:37C4  1213 0004:37C5  1218 0004:37C9
  1219 0004:37CD  1232 0004:37E1  1233 0004:37F3  1234 0004:37F8
  1235 0004:380E  1237 0004:381C  1238 0004:382B  1239 0004:3835
  1242 0004:3841  1248 0004:384A  1254 0004:384E  1255 0004:385F
  1256 0004:3864  1258 0004:3897  1259 0004:38C9  1260 0004:38CC
  1261 0004:38CE  1262 0004:38E2  1263 0004:38F1  1264 0004:3901
  1269 0004:3905  1270 0004:3909  1271 0004:392C  1273 0004:3937
  1274 0004:3950  1275 0004:395C  1276 0004:396F  1277 0004:397B
  1278 0004:399D  1279 0004:39BF  1280 0004:39EF  1282 0004:39FA
  1283 0004:3A0B  1284 0004:3A18  1285 0004:3A30  1286 0004:3A47
  1289 0004:3A49  1290 0004:3A59  1291 0004:3A6A  1292 0004:3A76
  1295 0004:3A82  1300 0004:3A86  1301 0004:3A8A  1302 0004:3A90
  1303 0004:3A94  1305 0004:3A9C  1306 0004:3AA3  1307 0004:3AB1
  1308 0004:3AC2  1309 0004:3AC5  1310 0004:3AC8  1311 0004:3ACF
  1313 0004:3ADD  1314 0004:3AE4  1315 0004:3B00  1316 0004:3B0E
  1318 0004:3B1F  1319 0004:3B2D  1320 0004:3B4E  1321 0004:3B6F
  1324 0004:3B7E  1327 0004:3B82  1328 0004:3B85  1329 0004:3B93
  1330 0004:3BA4  1337 0004:3BA8  1338 0004:3BAC  1339 0004:3BB5
  1341 0004:3BBE  1342 0004:3BE4  1345 0004:3BF2  1346 0004:3C00
  1347 0004:3C12  1348 0004:3C1E  1349 0004:3C21  1352 0004:3C2F
  1353 0004:3C38  1354 0004:3C44  1355 0004:3C5C  1356 0004:3C70
  1358 0004:3C84  1359 0004:3C9A  1360 0004:3CB0  1363 0004:3CBA
  1364 0004:3CBD  1367 0004:3CD0  1368 0004:3CE4  1370 0004:3CFD
  1371 0004:3D07  1372 0004:3D1D  1375 0004:3D33  1376 0004:3D3C
  1377 0004:3D54  1378 0004:3D5D  1380 0004:3D65  1381 0004:3D7E
  1382 0004:3D97  1383 0004:3DB0  1387 0004:3DC3  1391 0004:3DC7
  1392 0004:3DCA  1393 0004:3E05  1398 0004:3E09  1399 0004:3E0D
  1400 0004:3E2D  1401 0004:3E32  1402 0004:3E51  1403 0004:3E76
  1406 0004:3E80  1407 0004:3E84  1409 0004:3E97  1410 0004:3E9C
  1411 0004:3EBE  1412 0004:3ECC  1413 0004:3EF5  1414 0004:3F0D
  1415 0004:3F17  1416 0004:3F23  1417 0004:3F2D  1419 0004:3F2E
  1425 0004:3F32  1429 0004:3F36  1431 0004:3F47  1432 0004:3F6B
  1433 0004:3F86  1435 0004:3F99  1443 0004:3FA6  1444 0004:3FAA
  1446 0004:3FB0  1449 0004:3FD7  1450 0004:3FE9  1451 0004:4005
  1452 0004:401B  1453 0004:4029  1454 0004:4050  1455 0004:405F
  1456 0004:4062  1457 0004:407A  1458 0004:40A1  1459 0004:40B3
  1460 0004:40DF  1461 0004:4106  1462 0004:412C  1463 0004:413A
  1464 0004:415C  1465 0004:4163  1466 0004:416F  1467 0004:4179
  1468 0004:417D  1469 0004:418F  1470 0004:41A6  1471 0004:41BE
  1472 0004:41D6  1473 0004:41EE  1474 0004:4206  1475 0004:421E
  1476 0004:4236  1477 0004:424E  1479 0004:4269  1481 0004:4298
  1483 0004:42C8  1485 0004:42D9  1487 0004:42F1  1488 0004:4300
  1489 0004:4312  1490 0004:4322  1491 0004:435D  1492 0004:436F
  1495 0004:4389  1498 0004:438D  1499 0004:4391  1500 0004:43A8
  1501 0004:43C5  1502 0004:43DD  1503 0004:43FF  1504 0004:4411
  1505 0004:4438  1510 0004:4461  1511 0004:4465  1512 0004:4469
  1513 0004:448F  1514 0004:449D  1515 0004:44AC  1516 0004:44BE
  1517 0004:44CE  1518 0004:44E3  1521 0004:44EC  1524 0004:44FB
  1525 0004:4536  1528 0004:453B  1529 0004:4560  1530 0004:4598
  1535 0004:45A2  1536 0004:45A6  1539 0004:45B8  1540 0004:45F6
  1541 0004:4617  1542 0004:4636  1544 0004:4638  1545 0004:4657
  1550 0004:465B  1551 0004:465F  1552 0004:4664  1553 0004:4683
  1554 0004:4699  1555 0004:46B5  1556 0004:46F5  1559 0004:46FF
  1560 0004:4703  1561 0004:4708  1562 0004:472A  1563 0004:4738
  1564 0004:475E  1565 0004:4792  1566 0004:479E  1567 0004:47A8
  1568 0004:47A9  1574 0004:47AD  1576 0004:47B1  1577 0004:47CE
  1580 0004:47D8  1581 0004:47E0  1583 0004:4822  1584 0004:4836
  1588 0004:4888  1592 0004:48E3  1593 0004:48EE  1597 0004:493D
  1598 0004:494C  1599 0004:495B  1600 0004:4988  1601 0004:4998
  1603 0004:499D  1608 0004:49A1  1613 0004:49A5  1614 0004:49B2
  1616 0004:49C0  1617 0004:49C7  1618 0004:49EB  1619 0004:49FA
  1620 0004:4A19  1622 0004:4A5A  1623 0004:4A65  1624 0004:4A78
  1629 0004:4A82  1630 0004:4A86  1631 0004:4A93  1633 0004:4AA6
  1634 0004:4AAC  1635 0004:4AC7  1636 0004:4AE6  1638 0004:4B2D
  1644 0004:4B31  1645 0004:4B35  1647 0004:4B47  1648 0004:4B56
  1649 0004:4B77  1650 0004:4BA5  1652 0004:4BC1  1661 0004:4BCB
  1662 0004:4BCF  1663 0004:4BE4  1665 0004:4C2F  1666 0004:4C50
  1669 0004:4CA2  1670 0004:4CAA  1672 0004:4CAD  1674 0004:4CB3
  1675 0004:4CE9  1676 0004:4CF3  1677 0004:4CF5  1678 0004:4D08
  1679 0004:4D29  1682 0004:4D31  1683 0004:4D3B  1684 0004:4D49
  1685 0004:4D59  1686 0004:4D65  1687 0004:4D79  1688 0004:4D89
  1691 0004:4D8C  1692 0004:4DA7  1693 0004:4DB1  1694 0004:4DC7
  1695 0004:4DCF  1696 0004:4DF0  1697 0004:4E19  1698 0004:4E3A
  1699 0004:4E3D  1700 0004:4E6A  1702 0004:4E95  1703 0004:4EA3
  1704 0004:4EAA  1705 0004:4EC4  1707 0004:4EEE  1708 0004:4F08
  1709 0004:4F30  1710 0004:4F3C  1711 0004:4F46  1712 0004:4F50
  1713 0004:4F5F  1714 0004:4F69  1715 0004:4F79  1716 0004:4F83
  1717 0004:4F84  1722 0004:4F88  1723 0004:4F8C  1724 0004:4FB8
  1725 0004:4FC7  1727 0004:4FFB  1729 0004:500D  1731 0004:501F
  1732 0004:502A  1739 0004:503A  1741 0004:503E  1743 0004:505F
  1745 0004:5076  1747 0004:50A5  1748 0004:50D5  1749 0004:50DE
  1750 0004:50E4  1751 0004:5106  1752 0004:5129  1753 0004:512E
  1754 0004:5132  1755 0004:5162  1756 0004:518E  1757 0004:5198
  1758 0004:519A  1759 0004:51C2  1760 0004:51D3  1762 0004:51E6
  1763 0004:51EC  1764 0004:51F2  1765 0004:5209  1767 0004:521C
  1768 0004:5225  1769 0004:522B  1770 0004:523D  1771 0004:525E
  1773 0004:527D  1774 0004:5296  1775 0004:52B0  1776 0004:52B2
  1778 0004:52C2  1781 0004:52D1  1782 0004:52D5  1783 0004:52F0
  1784 0004:530D  1789 0004:5311  1790 0004:5315  1800 0004:5336
  1801 0004:5376  1802 0004:53AE  1803 0004:53BE  1804 0004:53CE
  1808 0004:53D2  1809 0004:53EA  1810 0004:5423  1814 0004:5427
  1815 0004:543F  1816 0004:5479  1820 0004:547D  1821 0004:5495
  1822 0004:54CF  1826 0004:54D3  1827 0004:54D6  1828 0004:54EA
  1834 0004:54EE  1835 0004:54F2  1837 0004:5504  1838 0004:5514
  1839 0004:5533  1840 0004:5580  1842 0004:559C  1843 0004:55B5
  1846 0004:55C1  1850 0004:55C5  1851 0004:55C8  1852 0004:55EE
  1853 0004:560C  1860 0004:5610  1861 0004:5614  1862 0004:561D
  1863 0004:5626  1865 0004:5634  1866 0004:563C  1869 0004:564A
  1870 0004:5650  1871 0004:567D  1872 0004:5691  1873 0004:56B0
  1876 0004:56F2  1877 0004:5710  1878 0004:5732  1882 0004:573A
  1884 0004:5774  1885 0004:577E  1887 0004:5799  1888 0004:57A2
  1891 0004:57A6  1892 0004:57A9  1893 0004:57BB  1894 0004:57C4
  1895 0004:57CF  1896 0004:57DE  1903 0004:57E2  1904 0004:57E6
  1906 0004:57FD  1908 0004:5803  1909 0004:584C  1910 0004:585A
  1911 0004:585C  1912 0004:5870  1913 0004:587A  1914 0004:587C
  1917 0004:5882  1918 0004:5887  1920 0004:58A5  1926 0004:58A9
  1927 0004:58AD  1930 0004:58C3  1931 0004:58D6  1934 0004:58E2
  1935 0004:58E7  1937 0004:5914  1940 0004:5924  1941 0004:592A
  1942 0004:5936  1943 0004:5940  1944 0004:595C  1947 0004:596A
  1948 0004:596D  1951 0004:597B  1952 0004:59B0  1953 0004:59C8
  1955 0004:59FD  1960 0004:5A01  1961 0004:5A05  1962 0004:5A13
  1964 0004:5A49  1965 0004:5A66  1966 0004:5A97  1967 0004:5ABC
  1968 0004:5ABE  1969 0004:5AE3  1974 0004:5AE9  1977 0004:5AED
  1978 0004:5B0E  1980 0004:5B32  1981 0004:5B47  1982 0004:5B58
  1983 0004:5B91  1984 0004:5B9B  1986 0004:5BAC  1990 0004:5BB0
  1991 0004:5BB3  1992 0004:5BC9  1993 0004:5BF8  1996 0004:5BFC
  1997 0004:5BFF  2004 0004:5C0F  2009 0004:5C13  2011 0004:5C17
  2012 0004:5C2D  2013 0004:5C4C  2014 0004:5C99  2020 0004:5CA3
  2023 0004:5CA7  2024 0004:5CB2  2025 0004:5CE8  2026 0004:5CED
  2029 0004:5CF1  2031 0004:5CF4  2032 0004:5D15  2035 0004:5D36
  2036 0004:5D45  2038 0004:5D62  2039 0004:5D70  2042 0004:5D74
  2043 0004:5D78  2044 0004:5D9D  2045 0004:5DBC  2048 0004:5DC0
  2049 0004:5DC4  2050 0004:5DE8  2051 0004:5DF9  2052 0004:5E1E
  2053 0004:5E28  2054 0004:5E39  2055 0004:5E43  2057 0004:5E51
  2059 0004:5E63  2060 0004:5E6F  2062 0004:5E7D  2065 0004:5E89
  2066 0004:5EAC  2069 0004:5EB0  2070 0004:5EB4  2071 0004:5ECB
  2072 0004:5EE1  2075 0004:5F27  2078 0004:5F76  2079 0004:5F81
  2082 0004:5FC7  2084 0004:5FD5  2085 0004:5FDE  2087 0004:5FE9
  2090 0004:5FF5  2091 0004:6019  2093 0004:602A  2094 0004:6038
  2095 0004:605A  2096 0004:605D  2098 0004:6068  2101 0004:6074
  2102 0004:6098  2104 0004:60A9  2105 0004:60B7  2106 0004:60D9
  2109 0004:60DB  2112 0004:60EA  2113 0004:610E  2115 0004:611F
  2116 0004:612D  2118 0004:614F  2119 0004:616B  2120 0004:6178
  2121 0004:6184  2123 0004:6190  2129 0004:6194  2130 0004:6198
  2132 0004:619E  2133 0004:61A8  2135 0004:61BB  2138 0004:61BF
  2139 0004:61C2  2140 0004:61EF  2143 0004:61F3  2144 0004:61F6
  2145 0004:6206  2147 0004:6210  2148 0004:622A  2149 0004:6239
  2151 0004:623B  2152 0004:624A  2155 0004:624E  2156 0004:6251
  2157 0004:626E  2162 0004:6272  2163 0004:6276  2164 0004:6289
  2165 0004:6297  2166 0004:62B8  2167 0004:62BD  2168 0004:62C9
  2169 0004:62E8  2170 0004:6313  2171 0004:6334  2172 0004:6345
  2175 0004:6349  2176 0004:634C  2177 0004:6359  2180 0004:635D
  2181 0004:6360  2183 0004:636A  2185 0004:6374  2186 0004:637E
  2188 0004:6388  2189 0004:6398  2190 0004:63A9  2193 0004:63AD
  2194 0004:63B1  2195 0004:63DA  2196 0004:63F6  2197 0004:6401
  2199 0004:6413  2200 0004:6423  2203 0004:6462  2204 0004:6466
  2205 0004:646D  2207 0004:6488  2208 0004:6492  2210 0004:64A9
  2211 0004:64C0  2212 0004:64E4  2213 0004:64EF  2214 0004:64F1
  2216 0004:6502  2217 0004:6517  2218 0004:652C  2228 0004:653C
  2229 0004:6540  2230 0004:6545  2231 0004:655B  2232 0004:6564
  2233 0004:6572  2234 0004:6590  2236 0004:659E  2238 0004:65F9
  2239 0004:6606  2240 0004:660E  2241 0004:6624  2242 0004:6632
  2243 0004:6642  2244 0004:6660  2245 0004:6670  2246 0004:668A
  2247 0004:669A  2248 0004:66A6  2249 0004:66B0  2251 0004:66B1
  2252 0004:66BD  2253 0004:66C7  2254 0004:66C8  2257 0004:66DD
  2258 0004:66E1  2259 0004:66EA  2260 0004:670E  2262 0004:67B3
  2263 0004:67BC  2265 0004:67DA  2267 0004:6866  2268 0004:686F
  2270 0004:6872  2272 0004:68FE  2275 0004:6902  2276 0004:6905
  2277 0004:691A  2286 0004:6949  2287 0004:694D  2288 0004:695D
  2291 0004:699E  2292 0004:69B4  2293 0004:69C2  2294 0004:69F6
  2296 0004:6A01  2297 0004:6A1F  2298 0004:6A35  2299 0004:6A6F
  2302 0004:6A72  2303 0004:6A81  2304 0004:6AA5  2306 0004:6ABE
  2307 0004:6AD6  2308 0004:6B12  2310 0004:6B1B  2311 0004:6B32
  2312 0004:6B47  2315 0004:6BA1  2316 0004:6BA7  2318 0004:6C15
  2319 0004:6C1B  2321 0004:6C89  2322 0004:6C8F  2323 0004:6CE1
  2324 0004:6CEE  2325 0004:6D21  2326 0004:6D33  2328 0004:6D3F
  2329 0004:6D4A  2330 0004:6D56  2331 0004:6D60  2333 0004:6D61
  2338 0004:6D65  2339 0004:6D69  2341 0004:6D94  2342 0004:6D9E
  2344 0004:6DAD  2350 0004:6DBC  2351 0004:6DC0  2352 0004:6DE1
  2353 0004:6DF5  2354 0004:6E18  2356 0004:6E2F  2358 0004:6E47
  2359 0004:6E62  2360 0004:6E94  2362 0004:6E9F  2364 0004:6EB0
  2366 0004:6EB7  2367 0004:6EBD  2370 0004:6EF7  2371 0004:6F14
  2374 0004:6F29  2375 0004:6F39  2378 0004:6F3B  2379 0004:6F47
  2381 0004:6F56  2382 0004:6F9C  2389 0004:6FA0  2390 0004:6FA4
  2391 0004:6FB0  2393 0004:6FD2  2394 0004:6FEA  2395 0004:701D
  2396 0004:7045  2397 0004:7055  2398 0004:7084  2399 0004:70A9
  2401 0004:70AF  2402 0004:70D5  2404 0004:70D7  2405 0004:70E2
  2414 0004:70E6  2415 0004:7101  2416 0004:7116  2418 0004:7121
  2419 0004:7148  2420 0004:715A  2421 0004:715C  2422 0004:7163
  2427 0004:7167  2428 0004:717F  2430 0004:7194  2431 0004:71B0
  2432 0004:71DD  2433 0004:71E7  2435 0004:71ED  2436 0004:720B
  2438 0004:7220  2439 0004:7233  2440 0004:7243  2441 0004:7253
  2442 0004:725F  2444 0004:7265  2445 0004:726D  2447 0004:7283
  2448 0004:72AF  2450 0004:72E3  2453 0004:72EA  2454 0004:72EF
  2456 0004:7337  2457 0004:733B  2459 0004:7355  2460 0004:736A
  2461 0004:737D  2463 0004:7383  2464 0004:7396  2465 0004:73A9
  2467 0004:73B9  2469 0004:73E8  2471 0004:73FE  2477 0004:7402
  2478 0004:7406  2479 0004:7414  2480 0004:741F  2483 0004:742C
  2484 0004:7453  2485 0004:746A  2487 0004:747C  2489 0004:748C
  2498 0004:74A3  2499 0004:74A7  2501 0004:74C4  2502 0004:74CB
  2503 0004:74EF  2505 0004:7517  2506 0004:753B  2507 0004:7547
  2509 0004:7550  2513 0004:7563  2515 0004:7569  2516 0004:7591
  2518 0004:75B7  2519 0004:75BD  2521 0004:75DE  2522 0004:761A
  2524 0004:7633  2526 0004:763E  2535 0004:7642  2536 0004:7646
  2537 0004:7672  2539 0004:767D  2540 0004:7686  2541 0004:7692
  2542 0004:769C  2543 0004:76A5  2544 0004:76BC  2545 0004:76E2
  2546 0004:7708  2547 0004:7724  2548 0004:7732  2550 0004:7755
  2551 0004:776E  2558 0004:7772  2559 0004:7776  2560 0004:7797
  2561 0004:77C3  2563 0004:77CC  2564 0004:77E5  2565 0004:77F1
  2566 0004:77FD  2567 0004:780A  2568 0004:7819  2569 0004:7830
  2570 0004:783B  2571 0004:7844  2572 0004:7859  2574 0004:787B
  2575 0004:7882  2577 0004:788D  2578 0004:7899  2580 0004:78AD
  2581 0004:78B8  2582 0004:78C6  2585 0004:7902  2586 0004:7922
  2587 0004:7930  2589 0004:7940  2590 0004:7944  2592 0004:7952
  2593 0004:7958  2595 0004:7965  2596 0004:7985  2598 0004:7994
  2599 0004:79B4  2601 0004:79D7  2603 0004:79E8  2604 0004:7A11
  2605 0004:7A16  2606 0004:7A1A  2607 0004:7A1E  2608 0004:7A43
  2609 0004:7A68  2610 0004:7A6C  2612 0004:7A73  2613 0004:7A98
  2614 0004:7ABD  2616 0004:7AC1  2617 0004:7AE6  2618 0004:7B0B
  2619 0004:7B30  2620 0004:7B34  2621 0004:7B59  2622 0004:7B7E
  2623 0004:7BA3  2624 0004:7BA7  2625 0004:7BCC  2626 0004:7BF1
  2627 0004:7C16  2628 0004:7C1A  2629 0004:7C3F  2630 0004:7C64
  2631 0004:7C89  2632 0004:7CAE  2635 0004:7CF7  2639 0004:7D4B
  2641 0004:7D52  2642 0004:7D63  2644 0004:7D6D  2650 0004:7D71
  2651 0004:7D75  2653 0004:7D83  2654 0004:7D89  2655 0004:7D96
  2656 0004:7DA4  2657 0004:7DCB  2658 0004:7DDD  2660 0004:7DEC
  2661 0004:7E0C  2663 0004:7E2F  2665 0004:7E40  2666 0004:7E69
  2667 0004:7E70  2669 0004:7E81  2672 0004:7E85  2673 0004:7E89
  2675 0004:7E94  2676 0004:7E9A  2678 0004:7EA6  2679 0004:7EBA
  2681 0004:7ED1  2682 0004:7EE8  2683 0004:7EF9  2685 0004:7F05
  2688 0004:7F09  2689 0004:7F0D  2691 0004:7F18  2692 0004:7F1E
  2694 0004:7F2A  2695 0004:7F3E  2697 0004:7F55  2698 0004:7F6C
  2699 0004:7F7D  2701 0004:7F89  2704 0004:7F8D  2705 0004:7F90
  2706 0004:7F9A  2709 0004:7F9E  2710 0004:7FA1  2711 0004:7FB2
  2714 0004:7FB6  2715 0004:7FB9  2716 0004:7FCA  2719 0004:7FCE
  2720 0004:7FD1  2721 0004:7FE2  2724 0004:7FE6  2725 0004:7FE9
  2726 0004:7FFA  2729 0004:7FFE  2730 0004:8001  2731 0004:8012
  2734 0004:8016  2735 0004:8019  2736 0004:802A  2739 0004:802E
  2740 0004:8031  2741 0004:8042  2745 0004:8046  2746 0004:8049
  2747 0004:8055  2750 0004:8074  2751 0004:8078  2753 0004:8082
  2754 0004:80A7  2755 0004:80DF  2758 0004:80E3  2759 0004:80E6
  2760 0004:80F2  2763 0004:80F6  2764 0004:80F9  2765 0004:8105
  2768 0004:8109  2769 0004:810C  2770 0004:8131  2779 0004:8135
  2780 0004:8139  2781 0004:8147  2782 0004:815E  2783 0004:816D
  2784 0004:8172  2786 0004:8178  2787 0004:818D  2789 0004:8190
  2791 0004:8196  2792 0004:81AB  2794 0004:81AE  2796 0004:81BA
  2797 0004:81CF  2799 0004:81D2  2800 0004:81D8  2801 0004:81ED
  2802 0004:81FE  2806 0004:8203  2807 0004:8207  2809 0004:8210
  2810 0004:8233  2812 0004:823E  2813 0004:824D  2814 0004:8259
  2815 0004:8265  2816 0004:8274  2817 0004:8282  2818 0004:828E
  2820 0004:82CA  2822 0004:82D6  2824 0004:82DF  2830 0004:82E3
  2831 0004:82E7  2833 0004:82F5  2834 0004:8305  2835 0004:8319
  2836 0004:832D  2837 0004:834D  2838 0004:836B  2839 0004:837D
  2841 0004:838E  2845 0004:8392  2846 0004:8395  2848 0004:83A0
  2849 0004:83A6  2850 0004:83B4  2851 0004:83CF  2852 0004:83D9
  2853 0004:83E8  2855 0004:83F4  2858 0004:83F8  2859 0004:83FB
  2860 0004:841A  2862 0004:846D  2864 0004:84C0  2870 0004:84C4
  2871 0004:84C8  2872 0004:84E7  2873 0004:8511  2874 0004:852F
  2875 0004:854F  2878 0004:8553  2879 0004:8556  2880 0004:8560
  2883 0004:856A  2884 0004:856E  2885 0004:8590  2886 0004:859E
  2887 0004:85C0  2888 0004:85C7  2889 0004:85D3  2890 0004:85DD
  2891 0004:85DE  2894 0004:85E2  2895 0004:85E6  2896 0004:85F4
  2897 0004:8613  2898 0004:861D  2901 0004:8621  2902 0004:8624
  2903 0004:8638  2904 0004:8642  2907 0004:8646  2908 0004:8649
  2909 0004:865D  2910 0004:8667  2913 0004:866B  2914 0004:866F
  2915 0004:8679  2916 0004:86A1  2918 0004:86BB  2919 0004:86C5
  2921 0004:86E4  2924 0004:86E8  2925 0004:86EC  2926 0004:8706
  2929 0004:870A  2930 0004:870E  2932 0004:8721  2933 0004:8726
  2934 0004:8738  2935 0004:8752  2937 0004:876C  2938 0004:8776
  2941 0004:8795  2944 0004:8799  2945 0004:879D  2947 0004:87B0
  2948 0004:87B5  2949 0004:87C7  2950 0004:87E1  2952 0004:87FB
  2953 0004:8805  2956 0004:8824  2961 0004:8828  2962 0004:882C
  2963 0004:8831  2964 0004:8843  2965 0004:885A  2967 0004:886D
  2968 0004:887E  2971 0004:8882  2972 0004:8885  2973 0004:88A2
  2978 0004:88A6  2979 0004:88A9  2980 0004:88BF  2983 0004:88C3
  2984 0004:88C6  2985 0004:88D3  2988 0004:88D7  2989 0004:88DA
  2990 0004:88E7  2993 0004:88EB  2994 0004:88EE  2995 0004:88F9
  2997 0004:88FB  2998 0004:88FF  2999 0004:8916  3000 0004:8923
  3002 0004:893B  3003 0004:8969  3004 0004:8998  3005 0004:89A9
  3006 0004:89B6

Line numbers for Incsrch(INCSRCH.PAS) segment Incsrch

    63 0001:3F35    64 0001:3F39    65 0001:3F72    68 0001:3F76
    69 0001:3F7A    71 0001:3F88    72 0001:3FB1    73 0001:3FBD
    75 0001:3FC9    79 0001:3FCD    80 0001:3FD0    81 0001:3FE9

Line numbers for Select(SELECT.PAS) segment Select

    64 0002:3A1A    65 0002:3A1D    66 0002:3A50    71 0002:3A54
    72 0002:3A58    74 0002:3A64    76 0002:3A87    77 0002:3AD3
    79 0002:3ADA    82 0002:3ADE    83 0002:3AE1    84 0002:3AEB

Line numbers for Filter(FILTER.PAS) segment Filter

    66 0002:3C49    67 0002:3C4D    68 0002:3C6C    69 0002:3C8D
    70 0002:3C9A    72 0002:3CA0    73 0002:3CBF    75 0002:3CDE
    78 0002:3CFF    79 0002:3D02    80 0002:3D35    81 0002:3D57
    84 0002:3D6B    85 0002:3D6F    87 0002:3D7D    88 0002:3DA2
    90 0002:3DCB    91 0002:3DE1    92 0002:3E03

Line numbers for FileProp(FILEPROP.PAS) segment FileProp

   160 0005:0522   161 0005:0526   163 0005:052F   164 0005:054B
   165 0005:0567   167 0005:0570   169 0005:0574   170 0005:0577
   171 0005:058A   172 0005:059D   173 0005:05B0   174 0005:05C3
   177 0005:05C7   178 0005:05CB   180 0005:05EF   181 0005:060B
   183 0005:061E   188 0005:0635   189 0005:0639   190 0005:0643
   192 0005:0669   193 0005:067A   194 0005:069E   195 0005:06C2
   196 0005:06F1   197 0005:0728   198 0005:0752   200 0005:077D
   201 0005:079F   203 0005:07FF   204 0005:0820   207 0005:0853
   208 0005:087B   210 0005:08AE   211 0005:08C3   213 0005:08CD
   216 0005:08D1   217 0005:08D5   218 0005:08DF   219 0005:0903
   220 0005:0914   221 0005:0937   222 0005:095A   223 0005:0988
   224 0005:09BE   226 0005:09DE   228 0005:0A68   229 0005:0A79
   232 0005:0A9B   238 0005:0AA9   239 0005:0AAD   241 0005:0AD1
   242 0005:0AE2   243 0005:0B08   245 0005:0B96   247 0005:0BD8
   248 0005:0C01   249 0005:0C15   251 0005:0C3A   252 0005:0C51
   253 0005:0C56   255 0005:0C71   256 0005:0C84   257 0005:0C94
   258 0005:0CA1   259 0005:0CA9   261 0005:0CB9   264 0005:0CBD
   265 0005:0CC1   266 0005:0CD4   267 0005:0CFB   268 0005:0D25
   269 0005:0D2F   270 0005:0D4E   272 0005:0D61   273 0005:0DA2
   275 0005:0DDF   277 0005:0E06   278 0005:0E2E   283 0005:0E32
   284 0005:0E36   288 0005:0E8D   289 0005:0EAB   290 0005:0ED6
   292 0005:0EFA   296 0005:0F61   297 0005:0F7B   299 0005:0FA6
   304 0005:0FB0   305 0005:0FB4   306 0005:0FC6   307 0005:0FD8
   309 0005:0FDE   310 0005:0FED   312 0005:1017   318 0005:1045
   319 0005:1049   320 0005:1064   321 0005:10A3   322 0005:10AB
   324 0005:10C8   325 0005:10F6   326 0005:1128   330 0005:1181
   331 0005:1184   332 0005:118C   334 0005:11AE   335 0005:11E0
   337 0005:122C   340 0005:126B   341 0005:126D   342 0005:1272
   343 0005:129F   346 0005:12B7   347 0005:12C1   350 0005:12C5
   351 0005:12C8   352 0005:12DA   353 0005:12EC   356 0005:12F0
   357 0005:12F3   358 0005:12FC   361 0005:1300   362 0005:1304
   363 0005:1309   365 0005:1344   367 0005:1406   369 0005:1428
   371 0005:1436   372 0005:1449   373 0005:1467   375 0005:1470
   382 0005:147A   383 0005:147E   384 0005:1487   385 0005:14F1
   387 0005:14FB   388 0005:14FF   389 0005:1540   390 0005:154E
   391 0005:1560   392 0005:1574   394 0005:157D   395 0005:159E
   396 0005:15BF   397 0005:15E0   398 0005:15F9   399 0005:1612
   400 0005:162B   401 0005:1644   402 0005:165D   403 0005:1676
   404 0005:168F   405 0005:16A8   406 0005:16BF   407 0005:16D8
   408 0005:16EF   409 0005:1706   411 0005:171F   413 0005:172D
   414 0005:1741   416 0005:1773   418 0005:1782   419 0005:178E
   420 0005:1798   421 0005:1799   428 0005:17A3   429 0005:17BB
   431 0005:17CB   432 0005:183F   434 0005:1850   435 0005:1860
   436 0005:187B   439 0005:18A6   442 0005:18E2   443 0005:18E6
   444 0005:18F7   445 0005:190A   446 0005:1927   449 0005:1957
   450 0005:1980   451 0005:199D   455 0005:19A1   456 0005:19A4
   457 0005:19B5   466 0005:19E7   467 0005:19EB   468 0005:19F0
   469 0005:1A3F   470 0005:1A50   471 0005:1A8F   473 0005:1A98
   474 0005:1AE9   476 0005:1AF0   477 0005:1B01   480 0005:1B16
   481 0005:1B1E   483 0005:1B2E   485 0005:1B3A   486 0005:1B50
   488 0005:1B74   490 0005:1B88   491 0005:1BB1   492 0005:1BCC
   493 0005:1C09   496 0005:1C10   499 0005:1C3C   500 0005:1C44
   501 0005:1C47   502 0005:1C56   503 0005:1C66   505 0005:1CA4
   507 0005:1CCD   508 0005:1CDB   509 0005:1CEC   510 0005:1CEE
   512 0005:1D00   513 0005:1D09   517 0005:1D0D   518 0005:1D10
   519 0005:1D3A   522 0005:1D3E   523 0005:1D41   524 0005:1D5E
   525 0005:1D7B   526 0005:1D84   531 0005:1D88   532 0005:1D8C
   533 0005:1D9B   534 0005:1DC4   535 0005:1DD4   536 0005:1DF7
   537 0005:1E1C   538 0005:1E2B   541 0005:1E2F   542 0005:1E32
   543 0005:1E3B   546 0005:1E3F   547 0005:1E42   548 0005:1E4B
   551 0005:1E53   552 0005:1E57   553 0005:1E6C   554 0005:1E9E
   558 0005:1EA2   560 0005:1EA6   562 0005:1EDA   563 0005:1F00
   564 0005:1F14   565 0005:1F16   566 0005:1F40   567 0005:1F57
   571 0005:1F5B   572 0005:1F5E   573 0005:1F6D   574 0005:1F86

Line numbers for VerInfo(VERINFO.PAS) segment VerInfo

    83 0003:2DF2    84 0003:2E04    85 0003:2E2A    87 0003:2E34
    88 0003:2E48    91 0003:2E97    92 0003:2E9F    95 0003:2EBF
    98 0003:2ED6    99 0003:2ED9   100 0003:2EF4   106 0003:2F1F
   107 0003:2F23   108 0003:2F2A   109 0003:2F37   111 0003:2FAE
   112 0003:2FB3   113 0003:2FDA   115 0003:2FFA   116 0003:3001
   119 0003:3005   120 0003:3009   121 0003:3036   122 0003:303D
   127 0003:30C1   128 0003:30C5   129 0003:30CC   130 0003:30D9
   132 0003:30EE   133 0003:310B   134 0003:312C   135 0003:314D
   136 0003:316D   137 0003:318D   138 0003:31AD   139 0003:31CD
   140 0003:31EB   143 0003:3265   144 0003:3268   145 0003:326F
   146 0003:327C   147 0003:3295   148 0003:32A9   149 0003:32BD
   150 0003:32D1   151 0003:32E5   152 0003:32F9   153 0003:330D
   155 0003:331F   158 0003:33B0   159 0003:33B3   160 0003:33BA
   161 0003:33C7   162 0003:33E2   163 0003:33FE   164 0003:3413
   165 0003:3428   166 0003:343D   167 0003:3452   168 0003:3466
   169 0003:347A   170 0003:348E   171 0003:34A2   172 0003:34B6
   173 0003:34CA   175 0003:34DE   176 0003:34F3   177 0003:34FE
   178 0003:3517   179 0003:3530   181 0003:3547

Line numbers for FileMan(FILEMAN.PAS) segment FileMan

   100 0005:1FB7   101 0005:1FBA   102 0005:1FBF   103 0005:1FC4
   104 0005:1FC9   105 0005:1FCE   106 0005:1FD3   107 0005:1FD8
   108 0005:1FDD   109 0005:1FE2   110 0005:1FE7   113 0005:1FE9
   114 0005:1FEC   115 0005:1FF1   116 0005:1FF6   117 0005:1FFB
   118 0005:2000   119 0005:2005   120 0005:200A   121 0005:200F
   122 0005:2014   123 0005:2019   126 0005:201B   129 0005:204F
   130 0005:2077   131 0005:208D   132 0005:2098   133 0005:209D
   134 0005:20A2   135 0005:20A6   136 0005:20A8   137 0005:20AD
   138 0005:20B8   139 0005:20BC   140 0005:20BE   142 0005:20C8
   145 0005:20D5   148 0005:20D9   149 0005:20E6   150 0005:20F4
   152 0005:2131   153 0005:213D   154 0005:2148   155 0005:2149
   159 0005:215E   160 0005:2162   161 0005:2166   163 0005:217B
   164 0005:2188   165 0005:2196   167 0005:21DD   168 0005:21E8
   169 0005:21F4   171 0005:2200   172 0005:220C   173 0005:2217
   175 0005:2218   178 0005:2229   179 0005:222D   180 0005:2231
   181 0005:223C   182 0005:2251   183 0005:2274   184 0005:2277
   185 0005:2288   186 0005:22BA   187 0005:22E7   188 0005:22E9
   189 0005:22F4   191 0005:2302   192 0005:2311   193 0005:231C
   196 0005:2325   200 0005:233C   201 0005:234B   202 0005:2356
   204 0005:235B   205 0005:235F   208 0005:2366   209 0005:236A
   210 0005:236E   211 0005:2379   212 0005:238E   213 0005:23B1
   214 0005:23B4   215 0005:23C5   216 0005:23F7   218 0005:240A
   219 0005:2422   220 0005:2438   221 0005:243D   222 0005:2448
   223 0005:244B   224 0005:244D   225 0005:2459   231 0005:2463
   232 0005:2474   234 0005:2493   235 0005:24A1   236 0005:24BF
   237 0005:24F1   238 0005:24F3   239 0005:24F6   242 0005:2501
   245 0005:2537   247 0005:2546   248 0005:2560   249 0005:2592
   250 0005:25A0   252 0005:25D2   253 0005:25DD   254 0005:25E1
   257 0005:25E8   258 0005:25EC   259 0005:25FA   260 0005:261A
   263 0005:261E   268 0005:2621   269 0005:263B   270 0005:2651
   277 0005:2655   281 0005:2659   282 0005:2673   283 0005:268F
   285 0005:26B3   286 0005:26BD   288 0005:26CC   291 0005:26D0
   296 0005:26D3   297 0005:26DD   298 0005:26E7   305 0005:26F2
   313 0005:26F6   314 0005:26FA   315 0005:2705   316 0005:2729
   317 0005:2743   318 0005:2766   319 0005:2769   320 0005:2771
   321 0005:279C   323 0005:27A6   325 0005:27B0   326 0005:27CE
   327 0005:27FF   328 0005:2831   330 0005:2859   333 0005:286A
   334 0005:2874   337 0005:2889   338 0005:2899   342 0005:28A9
   343 0005:28B8   344 0005:28BB   345 0005:28C6   346 0005:28CA
   353 0005:28D8   356 0005:28DC   357 0005:28E0   358 0005:28EB
   359 0005:290F   360 0005:2929   361 0005:294C   362 0005:294F
   363 0005:2957   364 0005:2982   366 0005:298C   368 0005:2996
   369 0005:29B4   370 0005:29E5   371 0005:2A17   373 0005:2A30
   374 0005:2A3F   375 0005:2A4B   376 0005:2A55   379 0005:2A57
   380 0005:2A61   383 0005:2A76   384 0005:2A90   388 0005:2AA0
   389 0005:2AAF   390 0005:2AB2   391 0005:2ABD   392 0005:2AC7
   393 0005:2ACB   400 0005:2AD9   401 0005:2ADD   402 0005:2AE1
   403 0005:2AEC   404 0005:2B0F   405 0005:2B12   406 0005:2B3B
   408 0005:2B41   410 0005:2B47   411 0005:2B82   412 0005:2B9A
   414 0005:2BAA   415 0005:2BB7   416 0005:2BB9   417 0005:2BC3
   418 0005:2BCD   419 0005:2BD1   422 0005:2BD8   423 0005:2BDC
   424 0005:2BE0   425 0005:2BEB   426 0005:2C0E   427 0005:2C11
   428 0005:2C24   429 0005:2C2E   430 0005:2C3C   431 0005:2C52
   432 0005:2C65   433 0005:2C6A   434 0005:2C75   435 0005:2C78
   436 0005:2C7A   437 0005:2C86   438 0005:2C8B   439 0005:2C90
   440 0005:2C9C   442 0005:2C9E   443 0005:2CAA   444 0005:2CB8
   445 0005:2CEA   446 0005:2CF5   447 0005:2CF9   454 0005:2D1D
   460 0005:2D21   461 0005:2D26   462 0005:2D37   463 0005:2D66
   464 0005:2D6B   465 0005:2D7B   466 0005:2D95   467 0005:2DB1
   468 0005:2DBF   469 0005:2DDE   470 0005:2DE9   471 0005:2DF4
   472 0005:2DFF   474 0005:2E09   475 0005:2E15   476 0005:2E1F
   477 0005:2E20   478 0005:2E42   479 0005:2E5C   480 0005:2E6A
   481 0005:2E6F   483 0005:2E91   484 0005:2E97   487 0005:2EE9
   488 0005:2F3A   490 0005:2F6B   491 0005:2F76   492 0005:2F8C
   493 0005:2F98   494 0005:2FA3   495 0005:2FB5   496 0005:2FD0
   497 0005:2FD1   502 0005:2FF0   504 0005:2FF4   507 0005:300F
   508 0005:3016   510 0005:3025   511 0005:3035   512 0005:3038
   513 0005:303A   515 0005:3056   517 0005:30A0   519 0005:30AB
   520 0005:30AD   521 0005:30C0   523 0005:30C7   524 0005:30EF
   526 0005:3106   532 0005:3158   533 0005:318F   535 0005:3199
   536 0005:31B8   537 0005:31D7   538 0005:31F6   540 0005:3205
   541 0005:3210   543 0005:3213   546 0005:323B   548 0005:325D
   549 0005:328B   551 0005:3296   552 0005:32A8   554 0005:32AB
   557 0005:32D1   558 0005:32E4   560 0005:32E7   564 0005:3309
   566 0005:3327   568 0005:332E   571 0005:3384   572 0005:3392
   573 0005:3394   574 0005:339C   576 0005:339F   578 0005:33B3
   579 0005:33BE   580 0005:33E3   581 0005:33ED   582 0005:33F7
   583 0005:3401   584 0005:340B   585 0005:3415   586 0005:341F
   587 0005:3429   588 0005:3433   589 0005:343D   590 0005:3447
   592 0005:344F   598 0005:3458   599 0005:3481   600 0005:3486
   601 0005:349A   603 0005:34A1   604 0005:34C7   606 0005:34D0
   607 0005:34ED   612 0005:351D   613 0005:3538   614 0005:355B
   615 0005:357B   616 0005:3593   617 0005:35BA   618 0005:35BF
   620 0005:3602   621 0005:3639   622 0005:364E   625 0005:3654
   626 0005:3658   627 0005:3690   630 0005:3697   631 0005:369B
   632 0005:36A0   634 0005:36AE   636 0005:36D9   638 0005:36DF
   639 0005:36E9   642 0005:3704   647 0005:3718   648 0005:371C
   650 0005:3736   651 0005:375A   654 0005:3768   655 0005:376B
   656 0005:3786   659 0005:378A   660 0005:378D   661 0005:3798
   662 0005:37A3

Line numbers for Askdrop(ASKDROP.PAS) segment Askdrop

    55 0002:3F38    56 0002:3F3B    57 0002:3F67    60 0002:3F6B
    61 0002:3F6E    62 0002:3F7C

Line numbers for Desk(DESK.PAS) segment Desk

   140 0006:0076   141 0006:0087   142 0006:009A   143 0006:00B5
   144 0006:00D0   145 0006:00EB   146 0006:0106   147 0006:011F
   152 0006:0136   153 0006:013A   154 0006:0148   155 0006:0156
   156 0006:0164   157 0006:0171   158 0006:01AF   159 0006:01BD
   160 0006:01C8   161 0006:01D5   171 0006:01E4   172 0006:01E8
   173 0006:01F6   174 0006:0200   175 0006:021A   176 0006:025D
   177 0006:026E   194 0006:0278   195 0006:0298   196 0006:02BF
   197 0006:02D4   200 0006:02DF   201 0006:02F8   202 0006:0304
   203 0006:0325   205 0006:036E   207 0006:0389   208 0006:0399
   209 0006:03A6   210 0006:03A8   211 0006:03B5   212 0006:03C3
   213 0006:03F2   214 0006:0414   215 0006:0416   216 0006:0420
   221 0006:0424   222 0006:0428   223 0006:043E   225 0006:044F
   226 0006:0456   227 0006:0460   229 0006:0462   230 0006:0472
   235 0006:0476   236 0006:047A   237 0006:0492   238 0006:04B3
   239 0006:04BB   247 0006:04C5   248 0006:04C9   249 0006:04DE
   250 0006:04F0   251 0006:04FF   256 0006:0503   257 0006:0507
   258 0006:0523   259 0006:053A   260 0006:056B   261 0006:058B
   266 0006:058F   267 0006:0593   268 0006:05AF   269 0006:05C6
   270 0006:05F7   271 0006:0617   276 0006:061B   277 0006:061F
   278 0006:0634   279 0006:0646   290 0006:064A   291 0006:064E
   292 0006:0653   293 0006:066F   294 0006:0680   296 0006:0697
   297 0006:06A8   299 0006:06B3   300 0006:06C8   301 0006:06D2
   303 0006:06EE   304 0006:06F4   309 0006:06F8   310 0006:06FC
   311 0006:0718   312 0006:074F   317 0006:0753   318 0006:0757
   319 0006:0773   320 0006:07AC   325 0006:07B0   326 0006:07B4
   327 0006:07D0   328 0006:07E7   329 0006:081E   332 0006:0822
   333 0006:0831   334 0006:085A   335 0006:086B   336 0006:0870
   355 0006:0884   356 0006:0888   357 0006:0892   358 0006:089C
   359 0006:08AB   360 0006:08B1   361 0006:08C9   362 0006:08DF
   363 0006:08ED   364 0006:0900   366 0006:091D   367 0006:092D
   368 0006:093B   369 0006:0982   370 0006:0984   371 0006:09A6
   372 0006:09B2   375 0006:09C7   376 0006:09D5   377 0006:09DB
   379 0006:09EB   380 0006:09F1   383 0006:09F7   384 0006:0A02
   385 0006:0A0E   386 0006:0A18   387 0006:0A19   396 0006:0A23
   397 0006:0A27   398 0006:0A2D   399 0006:0A33   400 0006:0A38
   401 0006:0A49   402 0006:0A4F   403 0006:0A65   405 0006:0A73
   406 0006:0A81   408 0006:0A95   409 0006:0AA3   411 0006:0AA9
   412 0006:0AB7   414 0006:0ACB   415 0006:0AD9   418 0006:0ADF
   419 0006:0AF2   421 0006:0B0F   422 0006:0B1F   423 0006:0B2D
   425 0006:0B50   426 0006:0B5E   427 0006:0B64   429 0006:0B74
   430 0006:0B7A   433 0006:0B80   434 0006:0B88   435 0006:0B94
   436 0006:0B9E   437 0006:0B9F   451 0006:0BA3   452 0006:0BA7
   453 0006:0BC1   454 0006:0BC7   457 0006:0BCE   458 0006:0BD2
   459 0006:0BD8   460 0006:0BE4   461 0006:0C14   463 0006:0C21
   464 0006:0C25   465 0006:0C2B   466 0006:0C31   467 0006:0C47
   468 0006:0C55   469 0006:0C68   471 0006:0C85   472 0006:0C95
   474 0006:0CA3   476 0006:0CBF   477 0006:0CD0   478 0006:0CE4
   479 0006:0CF6   481 0006:0D04   482 0006:0D0F   483 0006:0D1B
   484 0006:0D25   485 0006:0D26   490 0006:0D2A   491 0006:0D2E
   492 0006:0D51   494 0006:0D6D   495 0006:0D84   496 0006:0DBC
   498 0006:0DDC   499 0006:0DEC   504 0006:0DF0   505 0006:0DF4
   506 0006:0E10   507 0006:0E27   508 0006:0E51   516 0006:0E55
   517 0006:0E59   518 0006:0E84   523 0006:0E88   524 0006:0E8C
   526 0006:0E99   527 0006:0EA9   529 0006:0EBE   539 0006:0EC2
   540 0006:0EC6   541 0006:0ED0   543 0006:0EEA   544 0006:0EFD
   545 0006:0F21   546 0006:0F2F   547 0006:0F37   560 0006:0F64
   562 0006:0F68   564 0006:0F99   565 0006:0FB7   566 0006:0FEF
   568 0006:0FF7   569 0006:100D   570 0006:101B   571 0006:1031
   573 0006:104D   574 0006:106E   576 0006:1074   577 0006:1082
   578 0006:1099   580 0006:10BA   581 0006:10C4   584 0006:10C7
   585 0006:10DD   588 0006:10FE   589 0006:1126   591 0006:112F
   592 0006:1136   593 0006:1140   597 0006:114C   598 0006:1155
   599 0006:1161   600 0006:116B   601 0006:116C   606 0006:11BB
   607 0006:11BF   608 0006:11CB   609 0006:11E3   610 0006:11FB
   611 0006:1206   614 0006:1210   615 0006:121F   617 0006:1245
   618 0006:1263   620 0006:1280   621 0006:12A5   625 0006:1314
   626 0006:132C   629 0006:1384   630 0006:138F   633 0006:13A6
   634 0006:13D6   635 0006:140E   637 0006:142A   638 0006:1448
   639 0006:1462   642 0006:14B0   643 0006:14BA   652 0006:14BE
   653 0006:14C2   654 0006:14DB   655 0006:14F4   656 0006:1510
   657 0006:1527   658 0006:1551   693 0006:1555   694 0006:1558
   695 0006:1571   696 0006:157F   699 0006:1583   700 0006:1587
   701 0006:1594   703 0006:159B   704 0006:15B4   706 0006:15C4
   722 0006:15C8   723 0006:15CC   724 0006:15ED   726 0006:1601
   727 0006:1616   729 0006:1624   730 0006:1654   731 0006:1663
   733 0006:166D   735 0006:1677   740 0006:167B   741 0006:167F
   742 0006:1683   744 0006:168F   745 0006:169C   747 0006:16CB
   754 0006:16D2   755 0006:16D6   756 0006:16DB   757 0006:16F5
   758 0006:1709   759 0006:170E   761 0006:1725   762 0006:1735
   764 0006:173F   765 0006:1755   766 0006:1762   767 0006:177E
   768 0006:1796   769 0006:179C   771 0006:17A6   772 0006:17AF
   777 0006:17B3   778 0006:17B7   779 0006:17BC   780 0006:17D6
   781 0006:17F6   782 0006:17FF   783 0006:180D   784 0006:1812
   786 0006:1822   787 0006:182D   789 0006:183F   790 0006:1849
   791 0006:184E   793 0006:1868   794 0006:1878   796 0006:1882
   797 0006:1898   798 0006:189B   799 0006:18AE   800 0006:18CE
   802 0006:18D4   803 0006:18DC   808 0006:18E0   809 0006:18E4
   810 0006:18E9   811 0006:1903   812 0006:1923   813 0006:192C
   814 0006:193A   815 0006:193F   816 0006:1944   817 0006:1949
   818 0006:1957   819 0006:1961   821 0006:1971   822 0006:1987
   824 0006:1999   826 0006:19B3   827 0006:19C3   829 0006:19CD
   830 0006:19E3   831 0006:19E6   832 0006:19F9   833 0006:1A11
   835 0006:1A17   836 0006:1A1F   839 0006:1A23   840 0006:1A26
   842 0006:1A36

Line numbers for Replace(REPLACE.PAS) segment Replace

    66 0003:36F4    67 0003:36F8    68 0003:3709    69 0003:3718
    72 0003:37A1    73 0003:37AB    76 0003:37B5    77 0003:37B9
    78 0003:37D8    79 0003:37F7    80 0003:3804    81 0003:3812
    82 0003:381F    83 0003:382B    84 0003:3836    85 0003:3837
    88 0003:383E    89 0003:3841    90 0003:386D    93 0003:3871
    94 0003:3874    95 0003:3882

Line numbers for Wastebin(WASTEBIN.PAS) segment Wastebin

   221 0006:1DCD   223 0006:1DD1   224 0006:1E01   225 0006:1E1B
   230 0006:1E1F   231 0006:1E31   232 0006:1E3E   233 0006:1E47
   234 0006:1E67   235 0006:1E7F   236 0006:1EAD   239 0006:1EDC
   241 0006:1EE0   242 0006:1EE5   243 0006:1EF3   244 0006:1F01
   245 0006:1F16   248 0006:1F1F   250 0006:1F26   252 0006:1F6A
   253 0006:1F76   254 0006:1F7B   255 0006:1F7C   260 0006:1F80
   261 0006:1F92   262 0006:1F9F   263 0006:1FA8   264 0006:1FBD
   265 0006:1FD2   266 0006:1FF6   267 0006:2006   268 0006:2037
   269 0006:2041   272 0006:2062   277 0006:2082   278 0006:20AA
   279 0006:20C6   280 0006:20D0   281 0006:20F0   282 0006:2116
   283 0006:2124   284 0006:2135   285 0006:213E   286 0006:2147
   287 0006:2186   288 0006:218B   289 0006:21AC   292 0006:21C0
   293 0006:21C4   294 0006:21C9   295 0006:21D7   296 0006:21E5
   297 0006:21F5   298 0006:2204   299 0006:220D   300 0006:2211
   301 0006:2216   302 0006:221B   303 0006:2227   304 0006:2232
   305 0006:2237   306 0006:2238   312 0006:223F   313 0006:2257
   315 0006:2260   316 0006:226F   317 0006:229B   318 0006:22BB
   322 0006:22C2   323 0006:22E3   325 0006:22E7   326 0006:22EA
   327 0006:2302   329 0006:235E   330 0006:238A   332 0006:23A3
   337 0006:23A7   340 0006:23B9   341 0006:23CC   342 0006:240D
   343 0006:2415   344 0006:2426   345 0006:243A   348 0006:2451
   349 0006:2463   350 0006:247A   351 0006:24A5   354 0006:24BC
   355 0006:24C0   356 0006:24D1   359 0006:24D8   360 0006:24DC
   361 0006:24F2   364 0006:24F9   365 0006:24FD   366 0006:250A
   369 0006:2514   370 0006:2518   371 0006:254A   376 0006:2551
   377 0006:2563   378 0006:2576   379 0006:25B7   380 0006:25C8
   383 0006:25DF   384 0006:25E3   385 0006:25F4   388 0006:25FB
   389 0006:25FF   390 0006:2617   393 0006:261E   394 0006:2622
   395 0006:262F   398 0006:2639   399 0006:263D   401 0006:2665
   402 0006:2670   403 0006:267B   405 0006:2685   410 0006:268C
   411 0006:268F   412 0006:2696   413 0006:26AE   417 0006:26B2
   418 0006:26B5   420 0006:2702   428 0006:2717   429 0006:271B
   431 0006:2738   432 0006:2769   434 0006:2777   435 0006:2781
   437 0006:278D   438 0006:279E   439 0006:27B5   440 0006:27C1
   441 0006:27CF   442 0006:27D9   443 0006:27FB   444 0006:2810
   446 0006:2831   447 0006:2853   448 0006:2865   450 0006:28AF
   451 0006:28C8   452 0006:28DE   453 0006:28E9   454 0006:28F5
   455 0006:28FF   456 0006:2909   457 0006:2910   458 0006:2927
   459 0006:293E   460 0006:2948   463 0006:294C   464 0006:2950
   465 0006:295F   466 0006:2971   467 0006:298E   468 0006:29A1
   469 0006:29BB   472 0006:29C7   473 0006:29D1   474 0006:29DE
   476 0006:29EA   489 0006:2A01   490 0006:2A05   491 0006:2A37
   492 0006:2A45   493 0006:2A4C   494 0006:2A5F   496 0006:2A75
   497 0006:2A82   498 0006:2A96   500 0006:2AB3   501 0006:2AC6
   502 0006:2AF8   503 0006:2B1D   504 0006:2B28   505 0006:2B33
   507 0006:2B3E   508 0006:2B4A   509 0006:2B54   510 0006:2B5F
   511 0006:2B6E   512 0006:2B79   513 0006:2B94   514 0006:2B95
   524 0006:2BA3   525 0006:2BA7   526 0006:2BC4   527 0006:2BD7
   529 0006:2BE5   530 0006:2BED   531 0006:2C34   532 0006:2C37
   533 0006:2C5B   536 0006:2C69   537 0006:2C6E   539 0006:2C91
   540 0006:2CAA   541 0006:2CC8   542 0006:2CCB   543 0006:2CCD
   545 0006:2CD9   546 0006:2CE3   547 0006:2CE4   552 0006:2CFF
   554 0006:2D03   555 0006:2D08   557 0006:2D1B   558 0006:2D31
   560 0006:2D4C   561 0006:2D66   562 0006:2D75   564 0006:2D7B
   565 0006:2DB0   567 0006:2DD3   569 0006:2DE1   570 0006:2DEA
   572 0006:2E0D   574 0006:2E17   575 0006:2E2A   576 0006:2E3A
   577 0006:2E72   579 0006:2E9C   585 0006:2EB1   587 0006:2EB5
   588 0006:2EC3   590 0006:2ED1   591 0006:2F0B   592 0006:2F1B
   593 0006:2F46   595 0006:2F6A   596 0006:2F9F   597 0006:2FAA
   598 0006:2FB5   600 0006:2FBD   601 0006:2FC9   602 0006:2FD3
   603 0006:2FDE   604 0006:2FF0   605 0006:300B   606 0006:300C
   611 0006:3010   612 0006:3014   613 0006:3027   614 0006:3043
   615 0006:307B   616 0006:3085   621 0006:30A0   623 0006:30A4
   625 0006:3144   626 0006:3147   627 0006:316B   628 0006:3179
   629 0006:3194   630 0006:31A7   632 0006:31C3   633 0006:31DD
   634 0006:31E8   635 0006:31F3   636 0006:31FB   637 0006:3207
   638 0006:3211   639 0006:321C   640 0006:321D   643 0006:3221
   644 0006:3224   645 0006:3234   646 0006:3254   649 0006:3258
   650 0006:325C   651 0006:3265   652 0006:3270   653 0006:328E
   654 0006:329E   657 0006:32A2   658 0006:32A6   659 0006:32E6
   660 0006:32F7   664 0006:32FB   665 0006:3313   666 0006:3321
   667 0006:3361   670 0006:3365   671 0006:3369   673 0006:3377
   674 0006:339A   675 0006:33C0   676 0006:33E6   677 0006:340C
   679 0006:3418   684 0006:341C   685 0006:3420   686 0006:3433
   687 0006:3471   688 0006:347C   693 0006:3492   694 0006:3496
   695 0006:34B3   696 0006:34DB   697 0006:34E8   698 0006:3500
   699 0006:3520   700 0006:3559   705 0006:355D   706 0006:3561
   707 0006:3583   709 0006:35A1   710 0006:35E5   711 0006:35FB
   712 0006:3604   713 0006:3614   714 0006:362A   715 0006:3635
   716 0006:366B   719 0006:366F   720 0006:3672   721 0006:367F
   724 0006:3684   725 0006:3687   726 0006:3696   729 0006:369A
   730 0006:369E   732 0006:36AC   733 0006:36CA   734 0006:36EB
   736 0006:3713   739 0006:3717   740 0006:371A   741 0006:372A
   742 0006:373E   745 0006:3742   746 0006:3746   747 0006:3754
   748 0006:378F   749 0006:37C0   757 0006:37D5   758 0006:37D9
   759 0006:37E1   760 0006:37E9   761 0006:37F7   763 0006:3818
   764 0006:3840   765 0006:384C   766 0006:3869   767 0006:3871
   769 0006:3921   771 0006:39AC   774 0006:39B0   775 0006:39B3
   776 0006:39BD   780 0006:39C1   781 0006:39C4   783 0006:39CA
   784 0006:39CF   786 0006:39E3   793 0006:39E7   794 0006:39EB
   796 0006:39F9   797 0006:3A0A   799 0006:3A47

Line numbers for FileFind(FILEFIND.PAS) segment FileFind

   147 0007:0490   148 0007:0493   149 0007:04B0   150 0007:04D3
   151 0007:04FE   152 0007:0507   153 0007:0512   154 0007:052F
   155 0007:054C   156 0007:0556   157 0007:056A   158 0007:0584
   159 0007:0597   160 0007:05AE   161 0007:05D0   162 0007:05F2
   163 0007:0614   164 0007:0631   165 0007:0659   166 0007:0682
   169 0007:06B2   170 0007:06B5   171 0007:06D2   173 0007:06DD
   174 0007:06FF   175 0007:0721   177 0007:0743   178 0007:0752
   179 0007:0761   180 0007:0769   181 0007:0771   184 0007:0797
   185 0007:079B   187 0007:07A6   188 0007:07AC   190 0007:07AF
   192 0007:07BD   193 0007:07D4   194 0007:07EA   196 0007:0852
   198 0007:0882   200 0007:08A8   201 0007:08B2   202 0007:08E1
   204 0007:0931   205 0007:0937   206 0007:093C   207 0007:0959
   208 0007:096A   209 0007:097B   210 0007:098C   211 0007:0999
   212 0007:09A3   213 0007:09B1   214 0007:09D0   215 0007:09DC
   216 0007:09E5   217 0007:0A02   218 0007:0A13   219 0007:0A24
   220 0007:0A38   221 0007:0A43   222 0007:0A5E   223 0007:0A8B
   224 0007:0A95   225 0007:0A96   250 0007:0AC2   251 0007:0AC6
   252 0007:0AE5   253 0007:0AF0   254 0007:0B0B   255 0007:0B18
   256 0007:0B25   257 0007:0B34   258 0007:0B42   261 0007:0B69
   263 0007:0B8F   264 0007:0BA8   265 0007:0BAE   267 0007:0BD9
   268 0007:0C0D   270 0007:0C16   271 0007:0C21   272 0007:0C3C
   274 0007:0C49   275 0007:0C6D   277 0007:0C8A   278 0007:0C97
   281 0007:0C9A   284 0007:0D00   285 0007:0D0D   287 0007:0D10
   288 0007:0D1D   289 0007:0D2D   290 0007:0D5E   292 0007:0D6E
   293 0007:0D7C   294 0007:0D90   295 0007:0DBA   297 0007:0E69
   298 0007:0E77   299 0007:0E8A   302 0007:0EC1   304 0007:0EDA
   307 0007:0EE3   308 0007:0EF3   309 0007:0EF8   312 0007:0EFD
   313 0007:0F0A   314 0007:0F0D   315 0007:0F17   316 0007:0F22
   319 0007:0F38   320 0007:0F61   322 0007:0F67   323 0007:0F7E
   324 0007:0FBB   325 0007:0FC8   326 0007:0FCA   328 0007:0FD4
   329 0007:0FE0   330 0007:0FED   331 0007:0FEE   344 0007:1002
   345 0007:1031   346 0007:103B   347 0007:104C   348 0007:1053
   349 0007:1058   350 0007:1066   351 0007:1078   352 0007:1081
   353 0007:1088   354 0007:1090   355 0007:1095   356 0007:10A5
   357 0007:10AB   358 0007:10B1   359 0007:10BB   360 0007:10C1
   361 0007:10F3   363 0007:1101   365 0007:110B   366 0007:1116
   367 0007:1131   368 0007:1150   370 0007:1156   371 0007:116E
   372 0007:1172   373 0007:119F   374 0007:11AD   377 0007:11B3
   378 0007:11C0   380 0007:11C6   382 0007:11D3   383 0007:11E1
   385 0007:11E3   386 0007:11ED   387 0007:11F9   388 0007:1209
   389 0007:1219   390 0007:1220   391 0007:1221   396 0007:122B
   397 0007:122F   398 0007:125B   399 0007:126C   400 0007:1272
   401 0007:129D   404 0007:12C1   405 0007:12C5   406 0007:130C
   407 0007:134C   408 0007:1356   413 0007:135A   414 0007:135E
   416 0007:136C   417 0007:137A   419 0007:13CA   421 0007:13DE
   422 0007:13F7   423 0007:1406   425 0007:1434   427 0007:1437
   428 0007:1448   429 0007:148C   430 0007:14A2   431 0007:14AB
   432 0007:14BB   433 0007:14D1   434 0007:14DC   435 0007:1512
   438 0007:1516   439 0007:151A   441 0007:1528   442 0007:1536
   443 0007:1542   445 0007:154C   446 0007:1553   455 0007:1563
   456 0007:157B   458 0007:15A0   459 0007:15B0   461 0007:15B7
   462 0007:15DF   464 0007:15E3   465 0007:15E6   467 0007:16A0
   468 0007:16B3   469 0007:16BF   470 0007:16D8   471 0007:171A
   472 0007:174D   474 0007:1769   478 0007:176D   479 0007:1771
   480 0007:17B1   481 0007:17C2   487 0007:17CD   489 0007:17D1
   490 0007:1848   491 0007:186E   494 0007:1872   495 0007:1876
   496 0007:18A4   501 0007:18AB   502 0007:18AF   503 0007:18C0
   504 0007:18E9   505 0007:192B   506 0007:193E   512 0007:194E
   513 0007:1952   515 0007:196B   516 0007:1970   517 0007:1975
   518 0007:1984   519 0007:1991   520 0007:199F   521 0007:19C0
   523 0007:19D4   524 0007:19E1   525 0007:1A00   527 0007:1A21
   528 0007:1A35   530 0007:1A56   531 0007:1A5F   532 0007:1A6B
   533 0007:1A7D   534 0007:1A88   535 0007:1A97   536 0007:1ABA
   537 0007:1AC4   539 0007:1AC5   545 0007:1AC9   546 0007:1ACD
   547 0007:1ADD   549 0007:1AEC   550 0007:1B15   551 0007:1B32
   552 0007:1B42   553 0007:1B5A   555 0007:1B80   558 0007:1B84
   559 0007:1B87   560 0007:1BAE   561 0007:1BF1   562 0007:1C0D
   563 0007:1C29   566 0007:1C37   567 0007:1C3B   568 0007:1C5A
   569 0007:1C8E   570 0007:1C9C   571 0007:1CAD   572 0007:1CB6
   573 0007:1CBB   574 0007:1CD1   577 0007:1CD5   578 0007:1CD8
   579 0007:1CEE   583 0007:1CF2   584 0007:1CF6   586 0007:1D08
   587 0007:1D20   589 0007:1D3C   590 0007:1D55   593 0007:1D61
   597 0007:1D65   598 0007:1D68   600 0007:1D7B   601 0007:1D8E
   603 0007:1D99   604 0007:1D9E   608 0007:1DA2   609 0007:1DA5
   610 0007:1DB0   611 0007:1DBF   616 0007:1DC4   617 0007:1DC8
   618 0007:1DD6   620 0007:1DE5   621 0007:1E0C   622 0007:1E46
   624 0007:1E67   627 0007:1E77   628 0007:1E7A   629 0007:1E81
   630 0007:1E98   633 0007:1E9C   634 0007:1E9F   635 0007:1EB1
   638 0007:1EB5   639 0007:1EB8   640 0007:1EC2   643 0007:1EC6
   644 0007:1ECA   645 0007:1EEC   646 0007:1F0A   647 0007:1F14
   650 0007:1F18   651 0007:1F1C   652 0007:1F2D   653 0007:1F5C
   656 0007:1F76   657 0007:1F79   658 0007:1F90   660 0007:1F96
   661 0007:1FB8   663 0007:1FDA   674 0007:2005   675 0007:2009
   676 0007:201F   677 0007:202D   678 0007:2061   679 0007:2071
   680 0007:2099   681 0007:20AF   683 0007:20BF   685 0007:217A
   687 0007:21F9   688 0007:21FB   689 0007:2228   690 0007:2233
   691 0007:223F   692 0007:2249   693 0007:224A   696 0007:224E
   697 0007:2251   698 0007:2265   701 0007:2269   702 0007:226D
   703 0007:227B   705 0007:22DE   706 0007:2334   707 0007:235A
   708 0007:2390   710 0007:239C   715 0007:23A0   716 0007:23A4
   717 0007:23B2   719 0007:23D7   720 0007:23DC   721 0007:23FB
   723 0007:2426   726 0007:242B   727 0007:242F   728 0007:2434
   729 0007:245C   730 0007:2466   731 0007:2474   732 0007:248B
   733 0007:24AD   734 0007:24B9   736 0007:24C3   740 0007:24C7
   741 0007:24CA   742 0007:24D9   743 0007:24F2   750 0007:24F6
   751 0007:24FA   752 0007:2502   754 0007:2510   756 0007:251B
   759 0007:2529   761 0007:2551   762 0007:255B   766 0007:2572

Line numbers for OpenFile(OPENFILE.PAS) segment OpenFile

    71 0003:3A70    72 0003:3A74    74 0003:3A9D    75 0003:3ABF
    77 0003:3B06    78 0003:3B28    80 0003:3B46    81 0003:3B63
    82 0003:3B79    83 0003:3B91    84 0003:3B9E    85 0003:3BA4
    87 0003:3BC8    89 0003:3BD1    90 0003:3C0D    93 0003:3C8A
    94 0003:3C8E    95 0003:3C91    96 0003:3CA0    98 0003:3CAC
    99 0003:3CB5   100 0003:3CD9   101 0003:3D10   103 0003:3D1B
   106 0003:3D25   107 0003:3D29   108 0003:3D48   109 0003:3D56
   110 0003:3D66   111 0003:3D8B   112 0003:3D92   113 0003:3D9E
   114 0003:3DA8   115 0003:3DA9   118 0003:3DBA   119 0003:3DBD
   120 0003:3DC8   121 0003:3DEA   122 0003:3DF9   125 0003:3DFD
   126 0003:3E00   127 0003:3E2F   130 0003:3E33   131 0003:3E37
   132 0003:3E4C   133 0003:3E74   138 0003:3EA3   139 0003:3EA7
   141 0003:3EB7   142 0003:3EC8   145 0003:3F19   146 0003:3F73
   149 0003:3FB2   152 0003:3FB6   153 0003:3FB9   154 0003:3FCB

Line numbers for Start(START.PAS) segment Start

   198 0008:02CF   199 0008:02D3   200 0008:0308   201 0008:0312
   202 0008:0330   203 0008:0338   207 0008:033F   208 0008:0343
   209 0008:0378   210 0008:0382   211 0008:03CD   212 0008:03D5
   219 0008:03E2   220 0008:03E6   221 0008:0403   222 0008:0411
   223 0008:0428   225 0008:0447   226 0008:0466   227 0008:0480
   228 0008:0488   229 0008:0494   230 0008:049E   231 0008:049F
   238 0008:04A9   239 0008:04AD   240 0008:04BE   241 0008:04DB
   242 0008:04E9   243 0008:04F6   244 0008:050C   245 0008:053D
   246 0008:0549   247 0008:0553   248 0008:0554   253 0008:0558
   254 0008:0569   255 0008:057C   256 0008:058E   259 0008:05A5
   260 0008:05A8   261 0008:05B8   262 0008:05C5   265 0008:05DE
   266 0008:05E2   268 0008:05EC   269 0008:0607   271 0008:0611
   274 0008:0615   275 0008:0618   276 0008:062E   279 0008:0632
   280 0008:0635   281 0008:065D   291 0008:0661   293 0008:0679
   295 0008:0682   296 0008:0692   297 0008:06A3   298 0008:06B1
   299 0008:06B4   300 0008:06BE   301 0008:06C7   302 0008:06DD
   303 0008:06F3   305 0008:06FA   306 0008:0723   309 0008:0732
   310 0008:073C   311 0008:074E   312 0008:075E   313 0008:076E
   314 0008:0780   315 0008:0794   318 0008:07A8   320 0008:07B2
   321 0008:07C4   322 0008:07D6   325 0008:07EA   327 0008:07F4
   328 0008:0806   329 0008:0815   330 0008:0825   331 0008:0835
   332 0008:0847   333 0008:0859   335 0008:086B   338 0008:0875
   339 0008:0887   340 0008:0897   341 0008:08A7   343 0008:08A9
   345 0008:08AF   346 0008:08D8   347 0008:08EC   348 0008:08FE
   351 0008:0908   352 0008:091A   353 0008:092E   356 0008:0942
   357 0008:0954   358 0008:0964   361 0008:0974   363 0008:097E
   364 0008:0995   365 0008:09C5   368 0008:09C7   369 0008:09DE
   372 0008:09F0   374 0008:09FD   375 0008:0A19   376 0008:0A2D
   380 0008:0A7C   382 0008:0A96   387 0008:0A9A   388 0008:0AAB
   389 0008:0ABE   390 0008:0AD9   391 0008:0AE0   392 0008:0AEA
   393 0008:0AEF   396 0008:0B06   397 0008:0B09   398 0008:0B17
   399 0008:0B24   405 0008:0B54   406 0008:0B58   407 0008:0B5C
   408 0008:0B61   409 0008:0B67   410 0008:0BE3   412 0008:0BEA
   415 0008:0BF8   416 0008:0C1A   418 0008:0C1D   421 0008:0C2B
   422 0008:0C4D   425 0008:0C50   428 0008:0C5E   429 0008:0C64
   430 0008:0C6B   432 0008:0C87   433 0008:0CB1   434 0008:0CB3
   435 0008:0CB5   438 0008:0CBB   439 0008:0CD8   440 0008:0CEB
   441 0008:0CF7   442 0008:0D0D   445 0008:0D11   446 0008:0D15
   447 0008:0D45   453 0008:0D4C   454 0008:0D50   455 0008:0D5A
   457 0008:0D8E   458 0008:0D9E   459 0008:0DB0   461 0008:0DBD
   463 0008:0DDA   464 0008:0DF2   465 0008:0DF5   467 0008:0DF7
   468 0008:0E01   469 0008:0E0B   470 0008:0E11   473 0008:0E24
   474 0008:0E27   475 0008:0E2A   476 0008:0E39   477 0008:0E4D
   478 0008:0E65   479 0008:0E77   480 0008:0E8D   483 0008:0EA7
   485 0008:0EF7   490 0008:0EFB   491 0008:0F0C   492 0008:0F1F
   493 0008:0F29   494 0008:0F2F   503 0008:0F4F   504 0008:0F53
   506 0008:0FBA   508 0008:0FDB   509 0008:0FDF   510 0008:0FE3
   511 0008:0FE8   512 0008:0FEE   513 0008:106A   515 0008:1071
   518 0008:107F   519 0008:1088   521 0008:108B   524 0008:1099
   525 0008:10A2   528 0008:10A5   531 0008:10B3   532 0008:10B9
   533 0008:10C0   534 0008:10E0   535 0008:10E6   536 0008:10F7
   538 0008:10FA   542 0008:1101   543 0008:1110   544 0008:1123
   545 0008:1127   547 0008:112A   548 0008:1134   549 0008:1194
   551 0008:119B   552 0008:11C7   553 0008:11CB   556 0008:11CE
   557 0008:11ED   561 0008:120D   562 0008:122A   563 0008:123D
   564 0008:1249   565 0008:125C   568 0008:127D   569 0008:1297
   570 0008:129B   573 0008:129F   574 0008:12A3   575 0008:12CF
   579 0008:12D6   580 0008:12DA   581 0008:12E7   583 0008:1307
   584 0008:131A   585 0008:1343   587 0008:138D   589 0008:13B8
   591 0008:13BA   593 0008:1404   598 0008:1413   599 0008:1424
   600 0008:1437   601 0008:1450   602 0008:146B   604 0008:1482
   605 0008:1499   606 0008:14B0   607 0008:14D8   608 0008:14F9
   609 0008:1509   610 0008:1520   611 0008:152A   614 0008:1541
   615 0008:1544   616 0008:1552   617 0008:155D   618 0008:1568
   619 0008:1573   620 0008:157E   622 0008:158A   623 0008:1595
   624 0008:15A0   625 0008:15AB   626 0008:15B8   631 0008:15D2
   632 0008:15D6   634 0008:1602   635 0008:1621   636 0008:162F
   641 0008:163D   643 0008:1656   644 0008:1671   645 0008:1686
   646 0008:1698   647 0008:169E   653 0008:16AF   654 0008:16C8
   655 0008:16D0   658 0008:16D4   659 0008:16D8   660 0008:170C
   670 0008:1710   674 0008:1714   675 0008:1721   676 0008:173D
   678 0008:1749   679 0008:175C   680 0008:1767   681 0008:177A
   683 0008:177C   684 0008:1781   686 0008:179A   687 0008:17AD
   689 0008:17D7   691 0008:17E5   693 0008:1819   694 0008:1829
   696 0008:182B   698 0008:185B   700 0008:1861   701 0008:1869
   703 0008:1887   705 0008:188D   706 0008:1895   707 0008:189D
   708 0008:18A5   710 0008:18AD   711 0008:18B8   726 0008:18C9
   729 0008:18CD   730 0008:18E3   731 0008:18FD   732 0008:190B
   733 0008:1924   735 0008:194A   736 0008:1994   737 0008:19B8
   738 0008:19E6   740 0008:19F5   741 0008:19F9   742 0008:1A45
   743 0008:1A47   744 0008:1A69   745 0008:1A79   746 0008:1A89
   747 0008:1A9B   748 0008:1AA8   749 0008:1AB4   750 0008:1ABE
   751 0008:1ABF   757 0008:1AC3   761 0008:1AC7   763 0008:1AE7
   764 0008:1AFA   766 0008:1B03   767 0008:1B0E   768 0008:1B26
   770 0008:1B5A   771 0008:1B62   773 0008:1B6F   775 0008:1B7B
   776 0008:1B96   777 0008:1BA8   778 0008:1BB3   787 0008:1BEA
   788 0008:1BEE   789 0008:1BF8   790 0008:1C13   791 0008:1C2A
   792 0008:1C3E   793 0008:1C64   794 0008:1C72   796 0008:1C7C
   797 0008:1C86   799 0008:1CA4   800 0008:1CC4   802 0008:1CD2
   803 0008:1CD7   804 0008:1CE9   808 0008:1CEC   809 0008:1CF1
   810 0008:1CFA   812 0008:1D34   813 0008:1D4E   816 0008:1D6E
   817 0008:1D82   818 0008:1D8C   819 0008:1D9B   820 0008:1DAD
   823 0008:1DBE   824 0008:1DCB   827 0008:1DDC   828 0008:1E06
   829 0008:1E2B   830 0008:1E38   831 0008:1E3A   832 0008:1E44
   833 0008:1E5D   834 0008:1E69   835 0008:1E73   836 0008:1E7E
   837 0008:1E7F   842 0008:1E83   843 0008:1E87   844 0008:1E8C
   845 0008:1E93   846 0008:1EB4   848 0008:1EDA   849 0008:1EF6
   856 0008:1F1F   857 0008:1F23   858 0008:1F2D   859 0008:1F44
   860 0008:1F69   861 0008:1F77   862 0008:1F8E   866 0008:1F93
   867 0008:1FAE   868 0008:1FBC   869 0008:1FC7   871 0008:2006
   872 0008:2026   873 0008:205D   874 0008:206C   876 0008:20A3
   877 0008:20CE   878 0008:20DB   879 0008:20E7   880 0008:20F1
   881 0008:20FB   882 0008:2100   883 0008:210A   884 0008:2114
   885 0008:2115   895 0008:2119   896 0008:211D   897 0008:2126
   899 0008:2143   900 0008:2151   901 0008:2173   902 0008:2190
   903 0008:21C0   904 0008:21E1   905 0008:21EC   907 0008:21F0
   908 0008:21F3   909 0008:2206   914 0008:2210   915 0008:2214
   917 0008:2246   918 0008:2258   919 0008:225D   920 0008:22BC
   921 0008:22CD   924 0008:2305   925 0008:2317   926 0008:231E
   930 0008:2341   937 0008:2376   938 0008:237A   940 0008:23AC
   943 0008:23C0   944 0008:23E2   945 0008:23F7   946 0008:2436
   948 0008:244B   957 0008:244F   958 0008:2453   959 0008:245C
   960 0008:2464   961 0008:2470   963 0008:24AA   964 0008:24C2
   965 0008:24CA   968 0008:24CE   969 0008:24D1   970 0008:24F4
   976 0008:2502   977 0008:2506   978 0008:2514   979 0008:251A
   980 0008:251F   982 0008:2529   983 0008:253B   984 0008:2561
   985 0008:2571   986 0008:2574   987 0008:2579   989 0008:2586
   990 0008:2595   991 0008:25A9   992 0008:25AC   993 0008:25B1
   994 0008:25C5   996 0008:25CD   997 0008:2601   998 0008:2621
   999 0008:2629  1000 0008:2646  1002 0008:2674  1003 0008:2686
  1004 0008:268E  1005 0008:2696  1006 0008:26A3  1007 0008:26AA
  1008 0008:26AC  1010 0008:26B1  1011 0008:26BE  1012 0008:26CB
  1015 0008:26D2  1016 0008:2704  1017 0008:270D  1018 0008:271E
  1019 0008:2723  1022 0008:2736  1023 0008:273A  1024 0008:2749
  1026 0008:27E2  1027 0008:27E9  1031 0008:2802  1032 0008:2806
  1034 0008:2879  1042 0008:287D  1043 0008:2881  1044 0008:2889
  1046 0008:28A9  1047 0008:28BC  1049 0008:290C  1050 0008:291A
  1051 0008:293B  1052 0008:2945  1053 0008:2950  1055 0008:295A
  1056 0008:295E  1057 0008:2973

Line numbers for Compsys(COMPSYS.PAS) segment Compsys

   235 0009:0952   236 0009:0956   237 0009:0975   242 0009:097A
   243 0009:097E   244 0009:0986   246 0009:098F   247 0009:099D
   249 0009:09B9   250 0009:0A06   252 0009:0A18   255 0009:0A1D
   256 0009:0A20   257 0009:0A24   258 0009:0A28   259 0009:0A37
   262 0009:0A3B   263 0009:0A3F   265 0009:0A4A   266 0009:0A6D
   267 0009:0A93   268 0009:0AA2   269 0009:0AB1   271 0009:0ABA
   274 0009:0ABE   275 0009:0AC1   276 0009:0ADE   281 0009:0AEB
   282 0009:0AEF   283 0009:0B0D   285 0009:0B58   286 0009:0B82
   287 0009:0BA1   290 0009:0BA5   291 0009:0BA8   292 0009:0BD8
   295 0009:0BDC   296 0009:0BDF   297 0009:0BEC   300 0009:0BF0
   303 0009:0BF4   304 0009:0C18   309 0009:0C1C   310 0009:0C20
   311 0009:0C3A   312 0009:0C4E   313 0009:0C5E   316 0009:0C62
   317 0009:0C65   318 0009:0C6F   319 0009:0C7D   328 0009:0C8E
   329 0009:0C9E   332 0009:0CA2   333 0009:0CA5   334 0009:0CAC
   335 0009:0CBC   338 0009:0CC9   339 0009:0CCC   340 0009:0CDC
   345 0009:0CF9   346 0009:0CFD   347 0009:0D1A   348 0009:0D3D
   349 0009:0D5D   350 0009:0D6D   351 0009:0D8A   365 0009:0D97
   366 0009:0DB6   367 0009:0DC7   368 0009:0DD1   369 0009:0DD8
   370 0009:0DEF   371 0009:0E06   372 0009:0E10   375 0009:0E34
   376 0009:0E38   377 0009:0E47   378 0009:0E59   380 0009:0E67
   381 0009:0E70   382 0009:0E82   383 0009:0E94   384 0009:0EA2
   385 0009:0EB0   386 0009:0EC8   387 0009:0EE5   389 0009:0EF1
   390 0009:0F09   391 0009:0F0D   392 0009:0F25   393 0009:0F29
   394 0009:0F31   396 0009:0F39   397 0009:0F63   400 0009:0F8A
   401 0009:0FA4   404 0009:0FB0   405 0009:0FBA   406 0009:0FC7
   409 0009:0FD3   410 0009:0FDA   413 0009:0FEE   414 0009:0FF2
   416 0009:0FF7   417 0009:1001   420 0009:1006   421 0009:1009
   422 0009:1014   423 0009:101E   426 0009:1022   432 0009:1025
   433 0009:1039   436 0009:103D   437 0009:1040   438 0009:1047
   439 0009:105F   442 0009:1063   443 0009:1067   444 0009:1070
   445 0009:107B   446 0009:108C   448 0009:10A6   449 0009:10C4
   450 0009:10D4   454 0009:10D8   455 0009:10F0   456 0009:1101
   457 0009:113A   461 0009:113E   462 0009:1141   463 0009:115B
   464 0009:1182   465 0009:1191   469 0009:1195   470 0009:1198
   471 0009:11AB   479 0009:11AF   480 0009:11B3   481 0009:11BC
   483 0009:11C2   484 0009:11DF   485 0009:11E2   489 0009:11F8
   490 0009:1210   491 0009:1233   492 0009:1255   493 0009:125E
   494 0009:1268   496 0009:1294   497 0009:12A6   498 0009:12BD
   499 0009:12BF   500 0009:12D6   502 0009:12D8   503 0009:12E9
   507 0009:12ED   508 0009:12F0   509 0009:12F7   510 0009:1326
   518 0009:132A   524 0009:132E   525 0009:1337   526 0009:135C
   528 0009:1368   529 0009:1384   530 0009:1395   531 0009:13A9
   532 0009:13AC   533 0009:13C9   534 0009:13DA   535 0009:13E3
   536 0009:1418   537 0009:144D   539 0009:146A   543 0009:146E
   544 0009:1471   546 0009:1484   547 0009:1497   549 0009:14A2
   550 0009:14A7   555 0009:14AB   556 0009:14BB   557 0009:14C0
   558 0009:14D4   560 0009:14E8   561 0009:14FD   562 0009:1515
   563 0009:151D   565 0009:1522   573 0009:1536   575 0009:153A
   576 0009:1544   578 0009:1561   579 0009:1574   581 0009:1592
   582 0009:15BE   584 0009:15D2   585 0009:15DE   587 0009:15E8
   589 0009:15EB   590 0009:15F6   591 0009:160E   593 0009:1616
   596 0009:1632   597 0009:163C   599 0009:165A   600 0009:165C
   601 0009:1678   602 0009:168A   603 0009:169D   605 0009:16AA
   606 0009:16BC   611 0009:16C0   612 0009:16C4   614 0009:16F0
   615 0009:1706   616 0009:1730   619 0009:173E   620 0009:1742
   621 0009:174B   622 0009:1759   623 0009:1778   624 0009:1781
   626 0009:179D   633 0009:17A5   634 0009:17A9   635 0009:17B4
   636 0009:17B8   638 0009:17BD   639 0009:17C6   640 0009:17E4
   641 0009:1803   642 0009:1808   643 0009:1822   645 0009:1832
   647 0009:1843   648 0009:184A   649 0009:1852   651 0009:1857
   652 0009:1861   653 0009:186D   654 0009:1870   656 0009:1878
   658 0009:1891   659 0009:189B   660 0009:18AA   661 0009:18B2
   662 0009:18CF   663 0009:18ED   664 0009:18FC   665 0009:1910
   666 0009:1925   668 0009:196E   669 0009:1989   671 0009:19B7
   672 0009:19E6   673 0009:19E8   674 0009:19F2   675 0009:19F4
   676 0009:19F9   677 0009:1A00   678 0009:1A05   679 0009:1A18
   681 0009:1A1D   682 0009:1A28   683 0009:1A33   684 0009:1A35
   685 0009:1A3A   691 0009:1A42   694 0009:1A46   695 0009:1A49
   696 0009:1A54   697 0009:1A63   704 0009:1A6B   705 0009:1A86
   706 0009:1A8C   707 0009:1A93   708 0009:1AA8   710 0009:1AD0
   711 0009:1AEE   712 0009:1B0C   715 0009:1B0E   716 0009:1B20
   718 0009:1B33   719 0009:1B46   720 0009:1B5F   728 0009:1B69
   730 0009:1BB0   732 0009:1BBC   733 0009:1BD2   734 0009:1BDD
   736 0009:1BE8   767 0009:1BEC   768 0009:1BF0   769 0009:1C07
   770 0009:1C3F   771 0009:1C44   776 0009:1C83   777 0009:1C9E
   778 0009:1CAA   779 0009:1CBD   780 0009:1CD2   781 0009:1CE5
   782 0009:1CF2   783 0009:1D00   784 0009:1D13   785 0009:1D21
   786 0009:1D2F   787 0009:1D3F   788 0009:1D53   789 0009:1D67
   790 0009:1D7B   791 0009:1D8F   792 0009:1DA3   794 0009:1DB7
   795 0009:1DCB   796 0009:1DDF   797 0009:1DF2   798 0009:1E05
   799 0009:1E18   800 0009:1E2B   802 0009:1E3E   804 0009:1E6A
   807 0009:1E6E   811 0009:1E72   812 0009:1E77   814 0009:1E80
   816 0009:1EA5   817 0009:1EAA   818 0009:1EAF   820 0009:1EB4
   823 0009:1EBB   824 0009:1EBE   825 0009:1EC8   828 0009:1ECC
   829 0009:1ECF   830 0009:1ED8   839 0009:1EFD   840 0009:1F01
   841 0009:1F10   842 0009:1F1C   844 0009:1F21   845 0009:1F2A
   847 0009:1F6A   848 0009:1F80   849 0009:1F8E   850 0009:1FA4
   852 0009:1FC6   853 0009:1FF2   855 0009:2003   856 0009:201E
   857 0009:2079   859 0009:208E   860 0009:2099   861 0009:20A5
   862 0009:20AF   863 0009:20B0   865 0009:20BE   866 0009:20C5
   867 0009:20D9   868 0009:20E0   870 0009:20EC   872 0009:2163
   873 0009:216F   878 0009:2173   879 0009:2177   881 0009:2199
   882 0009:21DB   883 0009:21F1   884 0009:21FC   885 0009:2232
   888 0009:2236   889 0009:223A   890 0009:224C   891 0009:2268
   894 0009:226C   895 0009:226F   896 0009:2280   899 0009:2284
   900 0009:2287   901 0009:2292   904 0009:2296   905 0009:2299
   906 0009:22A4   909 0009:22A8   910 0009:22AB   911 0009:22B6
   914 0009:22BA   915 0009:22BD   916 0009:22D8   919 0009:22DC
   920 0009:22DF   921 0009:22F3   924 0009:22F7   925 0009:22FA
   926 0009:230E   929 0009:2312   930 0009:2315   931 0009:232B
   934 0009:232F   935 0009:2332   936 0009:233D   937 0009:2342
   938 0009:234B   939 0009:236A   940 0009:2375   943 0009:2379
   944 0009:237C   945 0009:2392   948 0009:2396   949 0009:2399
   950 0009:23AF   953 0009:23B3   954 0009:23B6   955 0009:23CC
   958 0009:23D0   959 0009:23D3   960 0009:23F2   961 0009:241C
   964 0009:2420   965 0009:2423   966 0009:2439   969 0009:243D
   970 0009:2440   971 0009:2454   974 0009:2458   975 0009:245B
   976 0009:2466   981 0009:246A   982 0009:246D   983 0009:2483
   986 0009:2487   987 0009:248B   988 0009:248F   989 0009:2492
   993 0009:2495   997 0009:24AA   999 0009:24C9  1002 0009:24E0
  1003 0009:24E3  1004 0009:24ED  1005 0009:24F7  1007 0009:2512
  1008 0009:2526  1009 0009:2538  1010 0009:2548  1013 0009:2555
  1014 0009:2558  1015 0009:257B  1018 0009:2580  1019 0009:2583
  1020 0009:259B  1023 0009:25A0  1024 0009:25A3  1025 0009:25B6
  1031 0009:25BA  1032 0009:25BE  1033 0009:25E5  1034 0009:25F9
  1038 0009:25FD  1039 0009:2600  1040 0009:263F  1045 0009:2643
  1046 0009:2647  1047 0009:268A  1048 0009:26A1  1049 0009:26B8
  1050 0009:26EF  1053 0009:26F3  1054 0009:26F6  1055 0009:2701
  1056 0009:270C  1061 0009:2710  1063 0009:2714  1064 0009:271E
  1065 0009:2739  1066 0009:2745  1067 0009:274F  1068 0009:2763
  1069 0009:27A9  1070 0009:27BC  1071 0009:27CE  1074 0009:27D2
  1075 0009:27D6  1077 0009:2802  1078 0009:2829  1080 0009:283C
  1081 0009:285D  1082 0009:2876  1083 0009:2888  1084 0009:288A
  1086 0009:2894  1101 0009:2898  1102 0009:289C  1103 0009:28C3
  1104 0009:28CE  1105 0009:28DA  1107 0009:2917  1108 0009:293F
  1109 0009:2973  1110 0009:2977  1111 0009:297A  1112 0009:2985
  1121 0009:299C  1122 0009:29A0  1123 0009:29AA  1124 0009:29AF
  1125 0009:29C5  1126 0009:29D3  1127 0009:29E2  1128 0009:29F2
  1129 0009:2A50  1130 0009:2A55  1132 0009:2A69  1133 0009:2A8C
  1134 0009:2A96  1135 0009:2AB7  1137 0009:2AD4  1138 0009:2AF5
  1139 0009:2AF8  1140 0009:2B1B  1141 0009:2B2A  1142 0009:2B3E
  1143 0009:2B53  1145 0009:2B96  1146 0009:2BB1  1148 0009:2BD9
  1149 0009:2BF9  1150 0009:2BFB  1151 0009:2C01  1153 0009:2C1D
  1154 0009:2C40  1157 0009:2C6C  1158 0009:2C6F  1159 0009:2C72
  1160 0009:2C7E  1161 0009:2C88  1162 0009:2C8D  1163 0009:2C8E
  1169 0009:2C92  1171 0009:2C96  1173 0009:2CA1  1174 0009:2CBD
  1176 0009:2CC6  1177 0009:2CD5  1179 0009:2CDB  1180 0009:2CE3
  1182 0009:2CF4  1183 0009:2CF6  1185 0009:2CFD  1186 0009:2D0F
  1189 0009:2D13  1190 0009:2D16  1191 0009:2D1B  1194 0009:2D1F
  1195 0009:2D22  1196 0009:2D2D  1199 0009:2D31  1200 0009:2D34
  1201 0009:2D41  1204 0009:2D45  1205 0009:2D48  1206 0009:2D61
  1209 0009:2D65  1210 0009:2D68  1211 0009:2D73  1229 0009:2D77
  1230 0009:2D7B  1232 0009:2D84  1233 0009:2D8E  1234 0009:2DC0
  1235 0009:2DCF  1237 0009:2E0B  1245 0009:2E0F  1246 0009:2E12
  1247 0009:2E1D  1248 0009:2E22  1249 0009:2E2B  1260 0009:2E4A
  1263 0009:2E4E  1265 0009:2E51  1268 0009:2E55  1269 0009:2E58
  1270 0009:2E6B  1271 0009:2E7F

Line numbers for GotoFld(GOTOFLD.PAS) segment GotoFld

    65 0005:38EF    66 0005:38F3    67 0005:38F7    68 0005:38FC
    69 0005:3924    71 0005:392E    73 0005:3942    74 0005:394C
    76 0005:395A    77 0005:39A0    79 0005:39AE    80 0005:39D4
    81 0005:39D8    82 0005:39EA    84 0005:39EC    86 0005:3A27
    87 0005:3A3B    89 0005:3A45    92 0005:3A62    93 0005:3A65
    94 0005:3A98    95 0005:3ABA    98 0005:3AC9    99 0005:3ACC
   100 0005:3AF5   101 0005:3AFD   104 0005:3B01   105 0005:3B04
   106 0005:3B0B

Line numbers for Tips(TIPS.PAS) segment Tips

    73 0006:3C44    74 0006:3C48    76 0006:3C56    77 0006:3C78
    79 0006:3C7B    80 0006:3C80    81 0006:3C90    82 0006:3CA0
    83 0006:3CAE    84 0006:3CC7    87 0006:3CE6    88 0006:3D03
    89 0006:3D2F    90 0006:3D45    91 0006:3D4F    92 0006:3D5B
    93 0006:3D6B    94 0006:3D6C    97 0006:3D70    98 0006:3D74
    99 0006:3D87   100 0006:3DD0   101 0006:3DE3   102 0006:3DF1
   105 0006:3DF5   106 0006:3DF8   107 0006:3E0A   110 0006:3E17
   111 0006:3E1B   112 0006:3E54   115 0006:3E6C   116 0006:3E70
   117 0006:3E7A   118 0006:3EAA   121 0006:3EB7   122 0006:3EBA
   123 0006:3ECA   126 0006:3EE6   127 0006:3EE9   128 0006:3EFF
   131 0006:3F1D   132 0006:3F20   133 0006:3F32   134 0006:3F4B
   136 0006:3F4F   137 0006:3F52   138 0006:3F57

Line numbers for Binprop(BINPROP.PAS) segment Binprop

    76 0005:3D51    77 0005:3D54    78 0005:3D71    81 0005:3D75
    82 0005:3D79    83 0005:3D8A    84 0005:3D9E    87 0005:3DB8
    88 0005:3DC9    89 0005:3DCC    90 0005:3DE3    91 0005:3DFA
    94 0005:3E0F    95 0005:3E24    96 0005:3E37    97 0005:3E4A
    98 0005:3E7D   103 0005:3E81   104 0005:3E85   105 0005:3EA7
   106 0005:3EBE   107 0005:3F06   108 0005:3F18   109 0005:3F2A
   110 0005:3F3C   111 0005:3F41   112 0005:3F4C   113 0005:3F53
   118 0005:3F57   119 0005:3F5A   120 0005:3F77   121 0005:3FA5

Line numbers for Fsysprop(FSYSPROP.PAS) segment Fsysprop

   118 0007:29D0   119 0007:29D4   120 0007:29DE   121 0007:29F2
   122 0007:2A09   124 0007:2A1A   125 0007:2A2E   126 0007:2A42
   127 0007:2A55   128 0007:2A74   130 0007:2A88   131 0007:2A9B
   132 0007:2AAE   133 0007:2AC3   135 0007:2AD8   140 0007:2B36
   150 0007:2C12   151 0007:2C26   152 0007:2C3A   153 0007:2C4E
   155 0007:2C62   156 0007:2C75   157 0007:2C88   158 0007:2CAC
   159 0007:2CBF   160 0007:2CD2   161 0007:2CE5   162 0007:2D18
   168 0007:2D1E   170 0007:2D22   171 0007:2D32   172 0007:2D42
   173 0007:2D54   174 0007:2DAA   176 0007:2DD6   177 0007:2DE8
   178 0007:2DF8   179 0007:2E0A   181 0007:2E1C   186 0007:2EB6
   193 0007:2FEA   194 0007:2FEF   195 0007:2FF9   197 0007:3018
   198 0007:3039   199 0007:305A   200 0007:307B   202 0007:309C
   203 0007:30AE   204 0007:30C0   205 0007:30D2   206 0007:30E4
   207 0007:30E9   208 0007:30F6   213 0007:30FA   214 0007:30FD
   216 0007:3114   217 0007:3130   219 0007:3160   220 0007:3171
   223 0007:3175   224 0007:3179   225 0007:318E   226 0007:31C5
   230 0007:31C9   231 0007:31CC   232 0007:31DB   233 0007:31F4
   236 0007:31F8   237 0007:31FB   238 0007:320C

Line numbers for DeskProp(DESKPROP.PAS) segment DeskProp

   108 0007:35EE   109 0007:35F2   111 0007:3600   112 0007:3615
   114 0007:3668   116 0007:3676   117 0007:3696   119 0007:36E9
   122 0007:36ED   123 0007:36F1   125 0007:372D   128 0007:3731
   129 0007:3735   131 0007:3771   136 0007:3798   137 0007:379C
   138 0007:37B3   139 0007:37BD   140 0007:37CB   141 0007:37DF
   145 0007:383D   147 0007:3865   148 0007:386E   150 0007:38C8
   151 0007:38DA   152 0007:38EC   153 0007:3901   154 0007:3916
   155 0007:392B   156 0007:3940   157 0007:3955   158 0007:3975
   160 0007:39A8   161 0007:39B2   166 0007:39B6   167 0007:39BA
   168 0007:39CA   173 0007:3A64   174 0007:3A6D   175 0007:3AA3
   176 0007:3AB5   177 0007:3AC7   178 0007:3AD9   179 0007:3AEB
   180 0007:3AFD   181 0007:3B07   183 0007:3B13   184 0007:3B1C
   186 0007:3B22   187 0007:3B27   188 0007:3B34   194 0007:3B68
   195 0007:3B6C   197 0007:3BAB   202 0007:3BAF   203 0007:3BB3
   204 0007:3BE0   206 0007:3BEE   207 0007:3BF7   209 0007:3C17
   210 0007:3C28   211 0007:3C42   216 0007:3C46   217 0007:3C4A
   218 0007:3C77   219 0007:3CA4   220 0007:3CBE   225 0007:3CC2
   226 0007:3CC6   227 0007:3CEA   229 0007:3D00   230 0007:3D16
   231 0007:3D41   232 0007:3D6E   233 0007:3D88   235 0007:3D91
   239 0007:3D95   240 0007:3D98   241 0007:3DA7   242 0007:3DC0
   245 0007:3DCC   246 0007:3DD0   248 0007:3DDE   249 0007:3DF3
   251 0007:3E01   252 0007:3E19   253 0007:3E31   256 0007:3E3B
   259 0007:3E55   260 0007:3E59   262 0007:3E67   263 0007:3E82
   265 0007:3E90   266 0007:3EAB   267 0007:3EB6   270 0007:3EC0

Line numbers for CalColor(CALCOLOR.PAS) segment CalColor

    64 0007:3EC4    65 0007:3EC8    66 0007:3ED9    67 0007:3EE3
    68 0007:3EFF    69 0007:3F17    70 0007:3F1B    71 0007:3F1D
    72 0007:3F23    73 0007:3F35    76 0007:3F3C    77 0007:3F57
    78 0007:3F6B    79 0007:3F7C    84 0007:3F86    85 0007:3F8A
    86 0007:3FBC

Line numbers for Tree(TREE.PAS) segment Tree

   190 000A:049E   195 000A:04A2   196 000A:04B3   197 000A:04C5
   198 000A:04DA   199 000A:04EC   200 000A:0501   210 000A:051E
   215 000A:0522   216 000A:0533   217 000A:0542   218 000A:0566
   219 000A:056E   221 000A:058F   222 000A:059B   224 000A:05A4
   225 000A:05DC   226 000A:05F7   230 000A:060A   232 000A:0610
   233 000A:062D   235 000A:0648   236 000A:064E   238 000A:066F
   239 000A:06AB   241 000A:06C7   242 000A:06F4   244 000A:0732
   245 000A:073B   246 000A:0749   247 000A:0784   248 000A:07A2
   251 000A:07AF   252 000A:07B2   253 000A:07CF   254 000A:07F2
   255 000A:07FC   257 000A:0807   258 000A:0813   259 000A:0822
   262 000A:0831   264 000A:0838   265 000A:0847   266 000A:0856
   267 000A:0865   268 000A:0874   269 000A:0883   271 000A:0892
   272 000A:089C   275 000A:08AD   276 000A:08B1   277 000A:08C3
   279 000A:08D1   280 000A:08E6   281 000A:0903   282 000A:091C
   283 000A:092A   286 000A:0935   287 000A:0950   288 000A:0977
   289 000A:0982   290 000A:09BF   302 000A:09C3   303 000A:09DB
   307 000A:09E9   308 000A:09F8   309 000A:0A0E   310 000A:0A1B
   311 000A:0A2A   313 000A:0A39   314 000A:0A51   316 000A:0A58
   319 000A:0A5D   320 000A:0A63   323 000A:0A9E   324 000A:0ABA
   326 000A:0ACD   328 000A:0ADB   329 000A:0AF4   330 000A:0B03
   332 000A:0B09   333 000A:0B1B   334 000A:0B2D   335 000A:0B3E
   336 000A:0B47   337 000A:0B5F   338 000A:0B6E   339 000A:0B70
   343 000A:0B82   345 000A:0B88   346 000A:0B8F   348 000A:0B95
   349 000A:0BBD   351 000A:0BC3   354 000A:0BCA   355 000A:0BCF
   357 000A:0C12   358 000A:0C2D   359 000A:0C42   361 000A:0C4B
   362 000A:0C5E   363 000A:0C62   366 000A:0C72   367 000A:0C8A
   370 000A:0C9E   371 000A:0CAE   375 000A:0CBE   376 000A:0CDF
   377 000A:0CE9   379 000A:0D27   384 000A:0D63   385 000A:0D67
   386 000A:0D6D   387 000A:0D7E   389 000A:0D96   390 000A:0DA6
   392 000A:0DB6   393 000A:0DBA   396 000A:0DBC   401 000A:0DC0
   402 000A:0DC4   403 000A:0DD2   404 000A:0DEC   405 000A:0E28
   408 000A:0E2C   411 000A:0E2F   412 000A:0E43   413 000A:0E6C
   416 000A:0E70   417 000A:0E74   419 000A:0E7F   420 000A:0EA2
   422 000A:0ED8   423 000A:0EE4   429 000A:0EE8   432 000A:0EEC
   434 000A:0EF7   435 000A:0F19   437 000A:0F1C   440 000A:0F43
   441 000A:0F5F   442 000A:0F75   445 000A:0F7D   448 000A:0F94
   449 000A:0FBF   453 000A:0FC2   455 000A:0FCC   457 000A:0FDB
   458 000A:0FEF   463 000A:0FF1   464 000A:1020   465 000A:102B
   466 000A:104E   467 000A:105F   470 000A:106E   473 000A:1072
   474 000A:1076   475 000A:1083   482 000A:10A9   483 000A:10E1
   488 000A:10E5   489 000A:10E9   491 000A:10F7   492 000A:1110
   493 000A:1136   494 000A:114C   496 000A:1156   499 000A:1160
   500 000A:1164   501 000A:1171   502 000A:117D   503 000A:1186
   504 000A:1194   506 000A:119F   507 000A:11B2   509 000A:11D3
   510 000A:11DF   511 000A:11EA   512 000A:11F3   513 000A:11F4
   516 000A:11FE   517 000A:1201   518 000A:1206   519 000A:1213
   520 000A:1228   521 000A:1231   522 000A:123F   523 000A:124A
   524 000A:1259   525 000A:1265   526 000A:126C   527 000A:1277
   528 000A:1280   529 000A:1281   532 000A:1285   533 000A:1289
   534 000A:12B5   537 000A:12B9   538 000A:12BC   541 000A:12D0
   542 000A:12D7   544 000A:12E6   545 000A:12F1   548 000A:1300
   558 000A:1304   559 000A:1308   562 000A:1328   563 000A:133B
   565 000A:134F   566 000A:1365   568 000A:138F   569 000A:13A3
   571 000A:13B9   572 000A:13C2   573 000A:13D7   575 000A:13EE
   579 000A:1415   580 000A:1418   582 000A:1437   583 000A:1447
   585 000A:144D   586 000A:1456   587 000A:1466   588 000A:1477
   589 000A:1481   590 000A:1497   593 000A:14A0   597 000A:14A4
   598 000A:14A7   599 000A:14C8   603 000A:14CC   604 000A:14CF
   605 000A:14D8   608 000A:14DC   609 000A:14DF   610 000A:1508
   613 000A:1520   614 000A:1524   616 000A:152F   617 000A:1554
   619 000A:155C   620 000A:156B   621 000A:157A   627 000A:157E
   628 000A:1582   629 000A:159E   630 000A:15A3   631 000A:15AD
   633 000A:15C2   634 000A:15E5   635 000A:15F1   640 000A:15FB
   641 000A:15FF   642 000A:1608   643 000A:1616   644 000A:161E
   645 000A:1632   646 000A:1654   647 000A:1660   648 000A:1669
   649 000A:166A   650 000A:168D   655 000A:1691   656 000A:1695
   657 000A:16B0   660 000A:16E5   661 000A:16F5   663 000A:170F
   670 000A:1713   674 000A:1717   676 000A:1720   678 000A:1737
   681 000A:173A   682 000A:1742   683 000A:175E   684 000A:1772
   685 000A:1796   687 000A:17AA   688 000A:17C5   689 000A:17D5
   690 000A:17E5   691 000A:17F1   692 000A:1827   695 000A:183F
   701 000A:1849   705 000A:184D   706 000A:1868   707 000A:1872
   708 000A:1882   710 000A:188E   711 000A:18CC   712 000A:18E2
   713 000A:18F2   714 000A:18F4   723 000A:18FD   724 000A:1901
   725 000A:1938   726 000A:193E   727 000A:1951   728 000A:1960
   729 000A:196A   730 000A:1976   740 000A:1987   741 000A:198B
   742 000A:1995   743 000A:19B2   744 000A:19E3   745 000A:19FB
   746 000A:1A09   747 000A:1A41   749 000A:1A4B   751 000A:1A5A
   752 000A:1A76   753 000A:1A97   754 000A:1AAF   756 000A:1AC1
   757 000A:1ACE   758 000A:1ADC   759 000A:1ADF   760 000A:1AE9
   761 000A:1AF5   763 000A:1B05   765 000A:1B2C   767 000A:1B71
   768 000A:1B8E   769 000A:1B99   770 000A:1BBC   771 000A:1BDD
   772 000A:1BEA   773 000A:1C0B   775 000A:1C2C   776 000A:1C38
   777 000A:1C43   778 000A:1C44   781 000A:1C48   782 000A:1C4B
   783 000A:1C70   786 000A:1C74   787 000A:1C77   788 000A:1C9C
   792 000A:1CA0   793 000A:1CA3   794 000A:1CB7   796 000A:1CC3
   797 000A:1CE1   801 000A:1CE5   804 000A:1CE9   805 000A:1CF7
   807 000A:1D18   810 000A:1D50   811 000A:1D6E   814 000A:1DC9
   816 000A:1DE5   818 000A:1E41   819 000A:1E4F   820 000A:1E6C
   821 000A:1E87   825 000A:1E8B   826 000A:1E8F   828 000A:1E9D
   829 000A:1EA6   831 000A:1EE9   832 000A:1EFA   835 000A:1EFE
   836 000A:1F01   837 000A:1F15   838 000A:1F2C   843 000A:1F30
   844 000A:1F34   845 000A:1F49   848 000A:1F4D   849 000A:1F50
   850 000A:1F74   853 000A:1F78   854 000A:1F7B   855 000A:1F9F
   858 000A:1FA3   859 000A:1FA7   861 000A:1FB5   862 000A:1FCF
   864 000A:1FF0   867 000A:1FF4   868 000A:1FF8   870 000A:2006
   871 000A:2020   873 000A:203F   878 000A:204F   879 000A:2053
   880 000A:206C   881 000A:207C   882 000A:2096   885 000A:20B6
   886 000A:20ED   887 000A:20FB   888 000A:2102   889 000A:2147
   890 000A:216B   891 000A:2179   892 000A:2194   893 000A:219F
   894 000A:21AB   895 000A:21B6   896 000A:21B7   897 000A:21C3
   898 000A:21CE   899 000A:21CF   902 000A:21D3   905 000A:21D6
   924 000A:21DA   925 000A:21DD   926 000A:21E8   927 000A:221E
   930 000A:2222   931 000A:2233   932 000A:223C   934 000A:224C
   935 000A:2258   936 000A:2269   944 000A:22A7   945 000A:22AB
   946 000A:22B0   947 000A:22D8   949 000A:22E2   950 000A:22F3
   952 000A:2300   953 000A:232C   954 000A:2347   956 000A:234B
   957 000A:2351   958 000A:237D   959 000A:238C   960 000A:23B8
   962 000A:23E4   965 000A:23EE   966 000A:23F2   968 000A:2414
   969 000A:2423   970 000A:2431   971 000A:2438   972 000A:2465
   973 000A:2476   974 000A:2482   975 000A:248C   977 000A:248D

Line numbers for Sysprop(SYSPROP.PAS) segment Sysprop

   138 000A:2A2B   139 000A:2A2F   140 000A:2A46   141 000A:2A57
   142 000A:2A6B   143 000A:2A88   144 000A:2AA5   145 000A:2AC9
   146 000A:2B0C   152 000A:2B7C   154 000A:2BB3   155 000A:2BD9
   157 000A:2C04   158 000A:2C2F   160 000A:2C4C   162 000A:2C5D
   163 000A:2C86   165 000A:2C95   166 000A:2C9C   168 000A:2CBB
   169 000A:2CCF   171 000A:2CE3   173 000A:2D0C   175 000A:2D1A
   176 000A:2D49   178 000A:2D4F   179 000A:2D70   180 000A:2D7D
   181 000A:2D7F   184 000A:2D89   186 000A:2D97   187 000A:2D9F
   188 000A:2DAA   190 000A:2DC7   192 000A:2E26   194 000A:2E85
   197 000A:2EE4   198 000A:2F17   201 000A:2F40   202 000A:2F44
   203 000A:2F66   209 000A:3021   210 000A:3042   211 000A:3064
   212 000A:3069   213 000A:3079   216 000A:30C3   217 000A:30EC
   218 000A:310C   219 000A:311E   220 000A:3125   228 000A:3129
   229 000A:3141   230 000A:314F   231 000A:315E   232 000A:3174
   233 000A:3199   234 000A:31A7   235 000A:31C0   236 000A:31CF
   237 000A:31D5   238 000A:31E7   239 000A:31F9   240 000A:320A
   241 000A:3213   242 000A:3236   243 000A:3245   244 000A:3247
   245 000A:3259   246 000A:326E   247 000A:3295   248 000A:32A4
   249 000A:32AE   251 000A:32D0   253 000A:32F2   256 000A:3312
   262 000A:3316   263 000A:331A   264 000A:331F   266 000A:3350
   267 000A:3359   268 000A:3366   270 000A:3379   271 000A:3399
   272 000A:33C9   273 000A:33E7   274 000A:33E9   276 000A:33FE
   279 000A:3402   280 000A:3406   281 000A:3414   283 000A:341F
   284 000A:3435   286 000A:343E   292 000A:3442   293 000A:3446
   295 000A:3456   296 000A:3464   297 000A:3484   298 000A:34A3
   300 000A:34D1   301 000A:34E2   305 000A:34EB   308 000A:34EF
   309 000A:34F3   310 000A:3501   311 000A:3550   312 000A:356C
   315 000A:3570   316 000A:3573   317 000A:3582   318 000A:3591
   323 000A:3595   324 000A:3599   325 000A:359E   326 000A:35A8
   327 000A:35E4   328 000A:3603   329 000A:362B   330 000A:3695
   332 000A:369E   333 000A:36AE   334 000A:36C5   340 000A:36C9
   341 000A:36CD   343 000A:36E1   344 000A:36F4   345 000A:371C
   347 000A:373D   350 000A:3741   351 000A:3745   352 000A:377A
   355 000A:377E   356 000A:3781   357 000A:3793   366 000A:379D
   367 000A:37A1   369 000A:37B8   370 000A:37BD   372 000A:37D3
   373 000A:37E4   374 000A:37FA   375 000A:3808   377 000A:3818
   378 000A:3832   379 000A:383E   380 000A:388C   381 000A:3897
   383 000A:38BB   384 000A:38DD   385 000A:38F4   386 000A:3900
   387 000A:3917   388 000A:3967   389 000A:3973   390 000A:397E
   392 000A:398B   393 000A:3997   394 000A:39A1   395 000A:39AB
   396 000A:39B4   398 000A:39B5   402 000A:39B9   403 000A:39BC
   404 000A:39D9   408 000A:39E9   409 000A:39ED   410 000A:3A0F
   411 000A:3A1D   412 000A:3A24   413 000A:3A2E   415 000A:3A3C
   416 000A:3A6F   417 000A:3A9A   418 000A:3AE3   421 000A:3AF4
   422 000A:3B00   423 000A:3B0A   424 000A:3B0B   430 000A:3B3D
   431 000A:3B41   432 000A:3B51   433 000A:3B56   435 000A:3B83
   437 000A:3BE1   438 000A:3C19   439 000A:3C37   440 000A:3C5E
   441 000A:3C60   444 000A:3C72   448 000A:3C83   449 000A:3C87
   450 000A:3CA3   451 000A:3CC5   452 000A:3CD3   454 000A:3D29
   455 000A:3D33   457 000A:3D3E   459 000A:3D94   460 000A:3DA0
   461 000A:3DAA   462 000A:3DAB   466 000A:3DAF   467 000A:3DB2
   468 000A:3DC1   469 000A:3DDA   472 000A:3DDE   473 000A:3DE2
   474 000A:3DFD   475 000A:3E20   478 000A:3E24   479 000A:3E28
   480 000A:3E36   481 000A:3E66   484 000A:3E6A   485 000A:3E6E
   486 000A:3E88   489 000A:3E8D   490 000A:3E90   491 000A:3E9A

Line numbers for Password(PASSWORD.PAS) segment Password

    68 0008:2AC3    69 0008:2AC7    70 0008:2AD3    71 0008:2AF1
    72 0008:2AFC    73 0008:2B0C    74 0008:2B2B    75 0008:2B3B
    77 0008:2B5A    78 0008:2B70    79 0008:2B7B    85 0008:2B7F
    86 0008:2B83    87 0008:2B8A    88 0008:2BA6    89 0008:2BF1
    94 0008:2BF7    95 0008:2BFB    96 0008:2C02    97 0008:2C07
    99 0008:2C14   100 0008:2C5C   101 0008:2C60   102 0008:2C62
   103 0008:2C7D   108 0008:2C81   109 0008:2C85   110 0008:2C89
   111 0008:2C9C   112 0008:2CB7   113 0008:2CE6   116 0008:2CED
   117 0008:2CF1   118 0008:2CFA   119 0008:2D12   120 0008:2D2F
   121 0008:2D4C   122 0008:2D69   123 0008:2D7A   126 0008:2D7E
   127 0008:2D82   128 0008:2D98   129 0008:2DB0   130 0008:2DCD
   131 0008:2DEA   132 0008:2E07   133 0008:2E18   136 0008:2E1C
   137 0008:2E20   138 0008:2E63   139 0008:2E76   140 0008:2ED7
   141 0008:2EE3   142 0008:2F13   144 0008:2F25   145 0008:2F35

Line numbers for Task(TASK.PAS) segment Task

   295 000B:08F6   297 000B:08FA   298 000B:0908   300 000B:0924
   301 000B:092E   303 000B:093C   306 000B:0940   307 000B:0944
   308 000B:0957   311 000B:0961   313 000B:0964   314 000B:0988
   315 000B:09A4   320 000B:09A8   322 000B:09AC   323 000B:09BC
   327 000B:0A23   330 000B:0A2A   331 000B:0A2E   333 000B:0A61
   336 000B:0A68   337 000B:0A6C   338 000B:0A8B   341 000B:0A92
   342 000B:0A96   343 000B:0AB5   346 000B:0ABC   348 000B:0ACB
   350 000B:0AD5   351 000B:0AE9   353 000B:0B09   354 000B:0B0E
   359 000B:0B1C   360 000B:0B2D   361 000B:0B40   362 000B:0B4C
   363 000B:0B58   364 000B:0B64   365 000B:0B70   366 000B:0B7C
   369 000B:0B93   370 000B:0B96   371 000B:0BA1   372 000B:0BB3
   373 000B:0BCA   374 000B:0BF1   375 000B:0C1A   377 000B:0C38
   378 000B:0C54   379 000B:0C5F   380 000B:0C68   381 000B:0C6A
   382 000B:0C73   383 000B:0C7D   384 000B:0C87   390 000B:0C8B
   391 000B:0C8F   392 000B:0CB9   393 000B:0CE3   394 000B:0CFC
   395 000B:0D01   396 000B:0D23   400 000B:0D49   402 000B:0D54
   403 000B:0D67   405 000B:0D6E   406 000B:0D87   409 000B:0D8E
   410 000B:0DA8   411 000B:0DC5   412 000B:0DE5   413 000B:0DEE
   414 000B:0DF0   415 000B:0E10   417 000B:0E3C   423 000B:0E4C
   424 000B:0E67   426 000B:0E71   427 000B:0E85   429 000B:0E8F
   430 000B:0EB5   431 000B:0EDE   432 000B:0F03   435 000B:0F4F
   436 000B:0F5D   437 000B:0F7A   438 000B:0FA9   443 000B:0FAD
   444 000B:0FB1   445 000B:0FC8   447 000B:0FD3   448 000B:0FF7
   449 000B:1010   450 000B:102C   451 000B:102E   452 000B:103D
   453 000B:105C   463 000B:1060   464 000B:1070   466 000B:107C
   467 000B:1094   469 000B:10A9   470 000B:10AF   471 000B:10B4
   474 000B:10B6   475 000B:10BB   476 000B:10C0   481 000B:10CE
   482 000B:10DF   483 000B:10F2   484 000B:110F   485 000B:1120
   486 000B:112C   489 000B:1143   490 000B:1146   491 000B:1155
   492 000B:1162   498 000B:1171   499 000B:1175   500 000B:1192
   501 000B:11AF   503 000B:11C5   504 000B:11CF   505 000B:11D9
   506 000B:11F3   508 000B:121A   511 000B:121E   512 000B:1221
   514 000B:122E   515 000B:1236   517 000B:123F   525 000B:1245
   526 000B:1249   527 000B:125F   528 000B:127F   529 000B:1295
   530 000B:12A7   531 000B:12C7   533 000B:12CD   534 000B:12EE
   536 000B:12F6   537 000B:1300   540 000B:1304   541 000B:1307
   542 000B:131D   543 000B:1342   549 000B:134D   550 000B:1351
   553 000B:1363   554 000B:1379   555 000B:1380   556 000B:139A
   557 000B:13A3   563 000B:13A6   564 000B:13D1   565 000B:13EE
   566 000B:13F3   567 000B:1400   568 000B:142D   569 000B:1457
   570 000B:146F   571 000B:1479   573 000B:1485   576 000B:1489
   577 000B:148C   578 000B:14B2   579 000B:14C4   582 000B:14C8
   583 000B:14D9   584 000B:14EC   585 000B:1507   591 000B:151E
   592 000B:1522   594 000B:152B   596 000B:153D   597 000B:1553
   599 000B:155A   600 000B:155E   601 000B:1568   602 000B:157E
   607 000B:1585   608 000B:1588   609 000B:1599   610 000B:159B
   611 000B:15B3   615 000B:15B7   623 000B:15C1   624 000B:15EF
   625 000B:1602   626 000B:1617   627 000B:1634   628 000B:164A
   629 000B:1667   630 000B:1675   631 000B:1688   632 000B:169D
   633 000B:16BE   634 000B:16D3   635 000B:16FC   636 000B:1726
   637 000B:1732   638 000B:173C   639 000B:1746   640 000B:1747
   643 000B:175E   644 000B:1761   645 000B:1770   646 000B:177D
   649 000B:178C   650 000B:178F   651 000B:179E   656 000B:17A2
   657 000B:17D0   658 000B:17E3   659 000B:17F7   660 000B:1803
   661 000B:182B   662 000B:1844   663 000B:1863   664 000B:187E
   665 000B:1896   666 000B:18AE   669 000B:18C5   670 000B:18C8
   671 000B:18D7   672 000B:18E4   678 000B:18F3   679 000B:18F7
   681 000B:18FD   682 000B:1901   683 000B:190B   684 000B:1922
   685 000B:193A   687 000B:193E   690 000B:1942   691 000B:1945
   692 000B:195F   696 000B:1963   697 000B:1966   699 000B:19B6
   702 000B:19BA   703 000B:19BD   704 000B:19D1   713 000B:1A0E
   714 000B:1A12   715 000B:1A1C   716 000B:1A28   717 000B:1A4D
   718 000B:1A5B   719 000B:1A66   720 000B:1A85   721 000B:1A92
   722 000B:1AA0   723 000B:1AB7   724 000B:1ACE   725 000B:1AE5
   726 000B:1AFC   727 000B:1B1D   728 000B:1B3E   729 000B:1B5F
   730 000B:1B80   731 000B:1B8A   732 000B:1B9F   733 000B:1BA4
   734 000B:1BAB   736 000B:1BD8   737 000B:1C01   738 000B:1C1E
   739 000B:1C3B   740 000B:1C42   741 000B:1C66   742 000B:1C8A
   743 000B:1C94   744 000B:1C98   745 000B:1CA3   746 000B:1CA7
   747 000B:1CB5   748 000B:1CDA   749 000B:1CED   750 000B:1CF9
   751 000B:1D04   752 000B:1D16   753 000B:1D17   756 000B:1D1B
   757 000B:1D1E   758 000B:1D2D   759 000B:1D39   762 000B:1D3D
   764 000B:1D40   765 000B:1D6A   766 000B:1D73   767 000B:1D93
   771 000B:1D97   772 000B:1D9A   773 000B:1DA7   775 000B:1DB4
   777 000B:1DC4   778 000B:1DFB   779 000B:1E04   780 000B:1E06
   782 000B:1E13   783 000B:1E33   785 000B:1E3C   786 000B:1E3F
   787 000B:1E7B   790 000B:1E8A   792 000B:1EA1   794 000B:1EAB
   796 000B:1ECE   797 000B:1EDF   798 000B:1EE3   799 000B:1EEC
   800 000B:1EF5   801 000B:1EF7   803 000B:1F0F   804 000B:1F20
   805 000B:1F24   806 000B:1F2D   808 000B:1F36   811 000B:1F39
   813 000B:1F6C   814 000B:1F7D   815 000B:1F91   816 000B:1F95
   817 000B:1F9E   818 000B:1FA0   820 000B:1FBA   821 000B:1FCB
   822 000B:1FDF   823 000B:1FE3   826 000B:1FEC   827 000B:1FEE
   828 000B:2001   829 000B:2013   831 000B:201D   834 000B:2021
   837 000B:2025   838 000B:2033   839 000B:204A   840 000B:206F
   841 000B:2074   844 000B:207B   847 000B:207F   848 000B:208D
   849 000B:20A4   850 000B:20C9   851 000B:20CE   856 000B:20D5
   860 000B:20D9   861 000B:20E8   862 000B:20F8   863 000B:2114
   864 000B:2122   865 000B:2128   866 000B:2141   867 000B:215A
   868 000B:2179   869 000B:2184   872 000B:2188   873 000B:218B
   874 000B:2195   875 000B:219F   876 000B:21AF   881 000B:21B3
   882 000B:21B7   883 000B:21C0   884 000B:21DF   885 000B:2209
   887 000B:2214   888 000B:221B   890 000B:2225   896 000B:2229
   897 000B:222D   898 000B:2237   899 000B:2241   900 000B:224B
   901 000B:2254   902 000B:227E   903 000B:2294   905 000B:22D1
   907 000B:22DB   909 000B:22E2   910 000B:22F2   912 000B:22F8
   913 000B:2305   914 000B:2311   915 000B:231B   916 000B:2326
   917 000B:2328   920 000B:232A   921 000B:2339   923 000B:2359
   924 000B:2366   925 000B:2372   926 000B:237C   927 000B:2387
   930 000B:2389   931 000B:239E   932 000B:23C4   933 000B:23D0
   934 000B:23DF   935 000B:241C   936 000B:242D   940 000B:2431
   942 000B:2435   943 000B:243F   944 000B:2448   945 000B:2469
   946 000B:2489   948 000B:2493   950 000B:249A   951 000B:249F
   953 000B:24B1   954 000B:24BE   955 000B:24CA   956 000B:24D4
   957 000B:24E1   958 000B:24E3   961 000B:24E5   962 000B:2503
   964 000B:2514   965 000B:2521   966 000B:252D   967 000B:2537
   968 000B:2544   971 000B:2546   972 000B:2567   973 000B:257E
   974 000B:258A   975 000B:2599   976 000B:25D6   977 000B:25DA
   982 000B:25DE   983 000B:25E2   985 000B:25FA   986 000B:2609
   987 000B:2618   988 000B:2627   989 000B:2639   990 000B:264A
   992 000B:265B   994 000B:265F   995 000B:2663   998 000B:2677
   999 000B:2686  1000 000B:2694  1001 000B:26AB  1002 000B:26BD
  1003 000B:26CB  1005 000B:26E2  1006 000B:26F4  1007 000B:270D
  1008 000B:272F  1009 000B:2741  1010 000B:2759  1012 000B:277A
  1013 000B:278E  1014 000B:27AE  1016 000B:27C2  1021 000B:27C6
  1023 000B:27CA  1024 000B:27DC  1025 000B:2810  1026 000B:2817
  1027 000B:2823  1030 000B:283B  1031 000B:2852  1033 000B:2868
  1034 000B:287D  1035 000B:288A  1038 000B:289F  1040 000B:28AB
  1041 000B:28C9  1042 000B:28D8  1043 000B:28E7  1044 000B:28F1
  1045 000B:28FF  1047 000B:2919  1049 000B:291F  1050 000B:296D
  1051 000B:2997  1052 000B:299A  1054 000B:29A0  1055 000B:29A5
  1056 000B:29B0  1057 000B:29BA  1058 000B:29C3  1059 000B:29C5
  1060 000B:29CB  1061 000B:29D6  1062 000B:29E0  1067 000B:29E4
  1068 000B:29E8  1069 000B:29F6  1070 000B:2A2D  1077 000B:2A31
  1079 000B:2A35  1080 000B:2A3A  1081 000B:2A48  1083 000B:2A5C
  1084 000B:2A75  1085 000B:2A79  1086 000B:2A80  1088 000B:2A8C
  1089 000B:2AAD  1090 000B:2AB0  1091 000B:2AB2  1094 000B:2AF5
  1095 000B:2B0D  1097 000B:2B1A  1098 000B:2B23  1103 000B:2B27
  1104 000B:2B2B  1105 000B:2B47  1106 000B:2B57  1108 000B:2B60
  1109 000B:2B69  1110 000B:2B76  1111 000B:2B95  1112 000B:2BB3
  1113 000B:2BD1  1114 000B:2BEF  1115 000B:2C0D  1117 000B:2C13
  1119 000B:2C31  1120 000B:2C3B  1122 000B:2C3D  1123 000B:2C49
  1124 000B:2C5E  1125 000B:2C70  1130 000B:2C74  1133 000B:2C78
  1134 000B:2C86  1136 000B:2CB8  1137 000B:2CD0  1138 000B:2CDD
  1139 000B:2CE7  1140 000B:2CE9  1141 000B:2CF1  1146 000B:2CF5
  1151 000B:2CF9  1152 000B:2D04  1155 000B:2D1B  1156 000B:2D22
  1158 000B:2D24  1159 000B:2D40  1164 000B:2D4C  1165 000B:2D55
  1166 000B:2D6A  1167 000B:2D73  1168 000B:2D8B  1170 000B:2D93
  1175 000B:2D9D  1177 000B:2DA1  1178 000B:2DB7  1179 000B:2DD5
  1181 000B:2E4E  1184 000B:2E55  1186 000B:2E59  1187 000B:2E62
  1188 000B:2E74  1189 000B:2E82  1190 000B:2E9E  1192 000B:2EAC
  1193 000B:2EBD  1195 000B:2EE5  1196 000B:2EEF  1201 000B:2EF3
  1203 000B:2EF7  1204 000B:2F14  1205 000B:2F2E  1206 000B:2F3F
  1211 000B:2F43  1212 000B:2F47  1213 000B:2F4B  1214 000B:2F4F
  1219 000B:2F53  1220 000B:2F72  1222 000B:2FB0  1223 000B:2FBB
  1224 000B:2FCA  1225 000B:2FD9  1226 000B:2FE8  1227 000B:2FF3
  1228 000B:2FFE  1229 000B:3009  1230 000B:3014  1240 000B:3018
  1242 000B:301C  1244 000B:3029  1246 000B:3032  1247 000B:3051
  1248 000B:3077  1250 000B:30D0  1252 000B:30DF  1253 000B:311E
  1254 000B:312A  1257 000B:312D  1258 000B:3133  1259 000B:3152
  1262 000B:3168  1263 000B:316C  1264 000B:3176  1265 000B:318D
  1267 000B:3197  1269 000B:319D  1271 000B:31A7  1272 000B:31B0
  1273 000B:31C3  1274 000B:31C8  1277 000B:31CA  1279 000B:31CF
  1282 000B:31D8  1288 000B:31DC  1292 000B:31E0  1293 000B:31E8
  1294 000B:3216  1295 000B:321A  1297 000B:3224  1298 000B:323D
  1299 000B:3254  1300 000B:325E  1314 000B:3262  1319 000B:3266
  1320 000B:3275  1321 000B:3286  1322 000B:3297  1323 000B:32A7
  1324 000B:32B8  1325 000B:32CE  1326 000B:32FE  1327 000B:3328
  1329 000B:3369  1330 000B:33A4  1331 000B:33DF  1332 000B:33FA
  1333 000B:3410  1334 000B:342E  1337 000B:3432  1338 000B:3435
  1339 000B:3448  1342 000B:344C  1343 000B:344F  1344 000B:3460
  1347 000B:3464  1348 000B:3467  1349 000B:347A  1352 000B:347E
  1353 000B:3481  1354 000B:349A  1361 000B:349E  1362 000B:34A2
  1364 000B:34AA  1365 000B:34B1  1366 000B:34C2  1367 000B:34D3
  1368 000B:34E3  1369 000B:34F4  1370 000B:351C  1371 000B:354F
  1372 000B:3582  1374 000B:3595  1379 000B:3599  1381 000B:359D
  1382 000B:35AE  1384 000B:35D3  1385 000B:35ED  1386 000B:3607
  1387 000B:360F  1388 000B:361B  1389 000B:3625  1392 000B:3629
  1393 000B:362C  1394 000B:364E  1397 000B:3652  1398 000B:3655
  1399 000B:367D  1404 000B:3681  1405 000B:3685  1406 000B:3693
  1407 000B:36AD  1408 000B:36CD  1409 000B:36ED  1413 000B:36F5
  1414 000B:36F9  1415 000B:372B  1419 000B:372F  1420 000B:3733
  1421 000B:375D  1425 000B:3761  1426 000B:3764  1427 000B:3771
  1428 000B:377D  1429 000B:37D7  1430 000B:37D9  1431 000B:37F9
  1432 000B:3805  1433 000B:382F  1434 000B:3840  1437 000B:3844
  1438 000B:3847  1439 000B:385E  1440 000B:386B  1441 000B:387B
  1449 000B:387F  1450 000B:3883  1453 000B:3895  1454 000B:38A6
  1455 000B:38BE  1457 000B:38D7  1458 000B:38E7  1459 000B:3906
  1460 000B:391F  1461 000B:3934  1462 000B:394E  1467 000B:3950
  1468 000B:395C  1469 000B:3963  1477 000B:3967  1478 000B:396B
  1480 000B:397D  1481 000B:3986  1482 000B:3998  1484 000B:39AA
  1485 000B:39C7  1486 000B:39E8  1487 000B:3A0A  1490 000B:3A0E
  1491 000B:3A12  1492 000B:3A1E  1493 000B:3A2D  1494 000B:3A4A
  1495 000B:3A6C  1496 000B:3A8E  1503 000B:3B4E  1505 000B:3B52
  1506 000B:3B61  1507 000B:3B7E  1509 000B:3B8A  1510 000B:3B9C
  1511 000B:3BB9  1512 000B:3BE3  1513 000B:3BFD  1514 000B:3C10
  1515 000B:3C17  1517 000B:3C45  1518 000B:3C71  1519 000B:3C9D
  1521 000B:3CAD  1522 000B:3CD8  1523 000B:3D04  1524 000B:3D30
  1525 000B:3D58  1526 000B:3D67  1527 000B:3D8F  1529 000B:3DBC
  1531 000B:3DCC  1532 000B:3DD5  1534 000B:3DFC  1535 000B:3E17
  1537 000B:3E37  1540 000B:3E58  1541 000B:3E68  1542 000B:3E96
  1545 000B:3EB8  1546 000B:3EC3  1547 000B:3ED5  1550 000B:3ED7
  1551 000B:3EE4  1552 000B:3EF1  1554 000B:3EF7  1556 000B:3F07
  1557 000B:3F14  1558 000B:3F27  1559 000B:3F3A  1561 000B:3F63
  1563 000B:3F74  1564 000B:3F8C  1565 000B:3FA4  1567 000B:3FC9
  1568 000B:3FED  1569 000B:400B  1570 000B:4032  1571 000B:404E
  1572 000B:405A  1573 000B:4087  1575 000B:4093  1577 000B:40A3
  1578 000B:40AC  1581 000B:40D5  1582 000B:40E2  1584 000B:4115
  1585 000B:4137  1587 000B:4191  1588 000B:419C  1589 000B:41A8
  1590 000B:41B2  1593 000B:41B6  1594 000B:41B9  1595 000B:41DB
  1596 000B:41FC  1597 000B:4206  1600 000B:420A  1601 000B:420D
  1602 000B:4217  1605 000B:421B  1606 000B:421E  1608 000B:4225
  1609 000B:4255  1610 000B:425B  1611 000B:425F  1613 000B:4261
  1614 000B:428C  1615 000B:4292  1616 000B:4296  1619 000B:429A
  1620 000B:429E  1622 000B:42AC  1623 000B:42B5  1625 000B:42D5
  1626 000B:42E4  1627 000B:42EB  1635 000B:432B  1636 000B:432F
  1637 000B:4341  1638 000B:436B  1640 000B:438C  1641 000B:4391
  1642 000B:43C6  1647 000B:444D  1648 000B:4450  1650 000B:4471
  1651 000B:4494  1653 000B:44A6  1654 000B:44C6  1657 000B:4546
  1658 000B:4548  1661 000B:456B  1662 000B:4595  1665 000B:45CD
  1666 000B:45D4  1669 000B:4639  1671 000B:46A3  1672 000B:46A8
  1673 000B:46AD  1675 000B:46BD  1676 000B:46D4  1677 000B:46EE
  1679 000B:46FB  1680 000B:46FF  1686 000B:4703  1687 000B:4707
  1688 000B:4711  1689 000B:4724  1690 000B:4748  1691 000B:4759
  1694 000B:475D  1695 000B:4761  1696 000B:477B  1701 000B:477F
  1702 000B:4783  1704 000B:478A  1705 000B:479E  1707 000B:47A4
  1708 000B:47C5  1711 000B:47C7  1712 000B:47D8  1717 000B:47DC
  1718 000B:47E0  1720 000B:47EE  1721 000B:480B  1723 000B:481F
  1724 000B:4834  1725 000B:485E  1726 000B:4870  1727 000B:4872
  1729 000B:4883  1732 000B:4887  1733 000B:488A  1734 000B:4899
  1737 000B:489D  1738 000B:48A0  1739 000B:48B1  1740 000B:48C2
  1743 000B:48C6  1744 000B:48C9  1745 000B:48DB  1748 000B:48DF
  1749 000B:48E2  1750 000B:48F4  1753 000B:48FB  1754 000B:48FF
  1755 000B:490D  1756 000B:494D  1759 000B:4951  1760 000B:4954
  1761 000B:4966  1763 000B:4993  1768 000B:49CA  1769 000B:49CE
  1771 000B:4A0D  1776 000B:4A11  1777 000B:4A15  1778 000B:4A27
  1779 000B:4A39  1780 000B:4A4A  1781 000B:4A50  1782 000B:4A55
  1783 000B:4A67  1784 000B:4A6D  1787 000B:4A71  1788 000B:4A80
  1790 000B:4AA5  1791 000B:4AB3  1792 000B:4AB8  1795 000B:4AC6
  1796 000B:4AC9  1797 000B:4ADA  1800 000B:4ADE  1801 000B:4AE1
  1804 000B:4B02  1805 000B:4B0C  1807 000B:4B20  1812 000B:4B24
  1813 000B:4B28  1814 000B:4B62  1819 000B:4B66  1820 000B:4B6A
  1821 000B:4B74  1822 000B:4B82  1823 000B:4BAE  1824 000B:4BBA
  1831 000B:4BBE  1832 000B:4BC2  1834 000B:4BDF  1835 000B:4BE3
  1836 000B:4BEA  1838 000B:4C14  1839 000B:4C47  1840 000B:4C51
  1841 000B:4C5B  1842 000B:4C92  1844 000B:4C9C  1850 000B:4CA0
  1851 000B:4CA4  1853 000B:4CAA  1854 000B:4CAE  1855 000B:4CB8
  1856 000B:4CCF  1857 000B:4CD9  1858 000B:4CDC  1861 000B:4CE6
  1862 000B:4CEA  1863 000B:4CFB  1865 000B:4D07  1866 000B:4D0E
  1868 000B:4D39  1869 000B:4D6C  1872 000B:4DA5  1878 000B:4DA9
  1879 000B:4DAD  1881 000B:4DCA  1883 000B:4DD2  1884 000B:4DDB
  1886 000B:4DE8  1888 000B:4DF3  1889 000B:4E10  1890 000B:4E35
  1891 000B:4E37  1893 000B:4E83  1895 000B:4EA6  1901 000B:4EAA
  1902 000B:4EAE  1903 000B:4ECB  1905 000B:4ED3  1906 000B:4EF0
  1907 000B:4F0C  1908 000B:4F0F  1909 000B:4F1D  1910 000B:4F4C
  1911 000B:4F89  1912 000B:4F9B  1913 000B:4FBE  1917 000B:4FC2
  1918 000B:4FC5  1919 000B:4FCC  1920 000B:4FDE  1926 000B:4FE2
  1927 000B:4FE6  1930 000B:4FF9  1931 000B:5003  1932 000B:500D
  1934 000B:5044  1937 000B:5048  1938 000B:504B  1940 000B:5052
  1941 000B:5057  1942 000B:5075  1945 000B:5077  1946 000B:5086
  1948 000B:5094  1949 000B:50A0  1953 000B:50C0  1954 000B:50C3
  1956 000B:50CD  1957 000B:50D6  1958 000B:50E4  1959 000B:50F4
  1960 000B:50FB  1961 000B:5114  1962 000B:511E  1963 000B:512A
  1964 000B:512C  1966 000B:5136  1967 000B:513F  1968 000B:5144
  1969 000B:514E  1970 000B:5169  1971 000B:5173  1973 000B:517F
  1977 000B:5183  1978 000B:5186  1979 000B:5192  1982 000B:5196
  1983 000B:519A  1984 000B:51A3  1986 000B:51BC  1987 000B:51DF
  1988 000B:51F1  1989 000B:51FE  1990 000B:5200  1991 000B:522A
  1994 000B:522E  1995 000B:5231  1996 000B:524B  1999 000B:524F
  2000 000B:5252  2001 000B:525F  2002 000B:5269  2005 000B:526D
  2006 000B:5270  2007 000B:5284  2013 000B:5288  2014 000B:528B
  2016 000B:529A  2017 000B:529F  2019 000B:52AC  2022 000B:52B0
  2023 000B:52B3  2024 000B:52BE  2025 000B:52C8  2028 000B:52CC
  2029 000B:52CF  2030 000B:52D4  2038 000B:52DE  2039 000B:52E2
  2040 000B:52F8  2041 000B:5315  2042 000B:5323  2043 000B:533F
  2044 000B:534F  2045 000B:535F  2046 000B:5371  2047 000B:537D
  2048 000B:5387  2049 000B:5391  2050 000B:5392  2053 000B:5396
  2054 000B:5399  2055 000B:53AF  2064 000B:53BF  2065 000B:53C3
  2066 000B:53CF  2067 000B:53D4  2068 000B:53EA  2069 000B:53F3
  2070 000B:5401  2071 000B:541F  2073 000B:542D  2075 000B:5494
  2076 000B:54A1  2077 000B:54A8  2078 000B:54B6  2080 000B:54C0
  2081 000B:54CC  2082 000B:54D6  2083 000B:54D7  2086 000B:54DB
  2087 000B:54DF  2088 000B:550C  2089 000B:5516  2094 000B:551A
  2095 000B:551E  2096 000B:5529  2097 000B:552E  2098 000B:554A
  2100 000B:555E  2101 000B:5577  2103 000B:5581

Line numbers for Alias(ALIAS.PAS) segment Alias

    81 0008:2FAC    82 0008:2FBD    83 0008:2FD5    84 0008:2FDD
    85 0008:2FF8    86 0008:3009    87 0008:3024    88 0008:3037
    89 0008:3056    99 0008:3073   100 0008:3077   101 0008:3094
   102 0008:30A2   103 0008:30BE   104 0008:30CE   105 0008:30E0
   106 0008:30EC   107 0008:30F6   108 0008:30F7   111 0008:30FB
   112 0008:30FE   113 0008:310C   114 0008:311A   115 0008:3127
   118 0008:3136   119 0008:3139   120 0008:3147   123 0008:314B
   124 0008:314E   125 0008:3164   126 0008:3172   130 0008:3176
   131 0008:317A   132 0008:31A9   133 0008:31B9   135 0008:3201
   138 0008:3205   139 0008:3209   140 0008:3249   143 0008:324D
   144 0008:3251   145 0008:3255   148 0008:325C   149 0008:325F
   150 0008:3273   153 0008:3277   155 0008:327B   156 0008:3284
   157 0008:328B   158 0008:329D   159 0008:32BF   160 0008:32E1
   161 0008:3303   162 0008:3325   163 0008:3337   164 0008:3359
   165 0008:336B   167 0008:3372   170 0008:3380   171 0008:3384
   173 0008:3391   174 0008:3398   177 0008:33F3   180 0008:3452
   186 0008:3456   187 0008:345A   188 0008:347D

Line numbers for Shutdown(SHUTDOWN.PAS) segment Shutdown

    70 0008:3617    71 0008:361B    72 0008:366D    73 0008:3672
    74 0008:367C    75 0008:3687    76 0008:369E    77 0008:36A1
    78 0008:36B3    79 0008:36C5    80 0008:36D7    82 0008:36E7
    85 0008:36FA    86 0008:36FE    87 0008:3731    89 0008:373F
    90 0008:3751    92 0008:3766    95 0008:376A    96 0008:376D
    98 0008:377D    99 0008:378D   100 0008:379E   103 0008:37A2
   104 0008:37A5   105 0008:37B7   108 0008:37BB   109 0008:37BE
   110 0008:37C9   111 0008:37D0   114 0008:37F6   115 0008:37FA
   117 0008:3819   118 0008:3820   120 0008:383B   121 0008:3860
   123 0008:386A   124 0008:387C   131 0008:3880   132 0008:3884
   133 0008:389A   134 0008:38B4   135 0008:38BE   136 0008:38D4
   137 0008:38FE   138 0008:3909   139 0008:3913   140 0008:391D
   147 0008:392E   148 0008:3932   149 0008:3958   150 0008:3966
   151 0008:398C   152 0008:399D   153 0008:39B3   154 0008:39C4
   155 0008:39CE   157 0008:3A2B   158 0008:3A35   159 0008:3A3F

Line numbers for Taskman(TASKMAN.PAS) segment Taskman

   116 000C:0426   117 000C:0429   118 000C:0432   119 000C:0451
   120 000C:045C   135 000C:0488   136 000C:049A   137 000C:04A4
   138 000C:04BF   140 000C:04DB   141 000C:04EC   144 000C:04F2
   145 000C:0509   147 000C:050F   148 000C:052A   149 000C:0532
   150 000C:0534   152 000C:0536   154 000C:0544   155 000C:055F
   158 000C:0576   159 000C:0579   160 000C:0587   161 000C:0594
   166 000C:05A3   167 000C:05A7   168 000C:05B5   169 000C:05F3
   170 000C:0602   171 000C:0611   172 000C:0619   176 000C:062A
   177 000C:062D   178 000C:0634   179 000C:064B   184 000C:0659
   185 000C:065D   186 000C:066F   187 000C:068C   188 000C:06B7
   191 000C:06C8   192 000C:06CB   193 000C:06E8   194 000C:0705
   195 000C:0722   196 000C:072C   197 000C:073D   198 000C:0747
   199 000C:074E   200 000C:0765   201 000C:076F   204 000C:0773
   206 000C:0782   207 000C:079B   208 000C:07A0   215 000C:07BF
   216 000C:07C3   217 000C:07D3   218 000C:0815   219 000C:0824
   220 000C:0835   221 000C:0846   222 000C:0855   223 000C:0868
   224 000C:087C   225 000C:0881   227 000C:088C   229 000C:08B1
   230 000C:08D9   231 000C:08F5   232 000C:0909   233 000C:0928
   235 000C:092B   236 000C:092E   237 000C:0931   238 000C:0957
   239 000C:098F   240 000C:099C   242 000C:09A9   243 000C:09B7
   244 000C:09D1   245 000C:09E0   246 000C:09FE   248 000C:0A0D
   250 000C:0A88   251 000C:0AB9   254 000C:0ABD   255 000C:0AC1
   256 000C:0AC6   257 000C:0AE9   258 000C:0B15   261 000C:0B1C
   262 000C:0B20   263 000C:0B33   268 000C:0B3A   269 000C:0B3E
   270 000C:0B4D   271 000C:0B5B   272 000C:0B82   274 000C:0BC4
   275 000C:0BFB   276 000C:0C0E   280 000C:0C18   281 000C:0C1B
   282 000C:0C34   290 000C:0C38   291 000C:0C50   293 000C:0C69
   294 000C:0C92   295 000C:0CA8   296 000C:0CCD   297 000C:0CE6
   298 000C:0CF7   299 000C:0CFB   300 000C:0D28   301 000C:0D3D
   302 000C:0D6D   303 000C:0D82   304 000C:0D9B   306 000C:0DAD
   307 000C:0DDC   309 000C:0E29   311 000C:0E33   315 000C:0E37
   316 000C:0E3B   317 000C:0E41   318 000C:0E59   319 000C:0E70
   320 000C:0E89   321 000C:0EA6   323 000C:0EB5   329 000C:0EB9
   330 000C:0EBD   331 000C:0EC7   333 000C:0ECD   334 000C:0EF3
   336 000C:0F0A   342 000C:0F0E   343 000C:0F12   345 000C:0F20
   346 000C:0F30   347 000C:0F67   349 000C:0F71   354 000C:0F75
   355 000C:0F79   356 000C:0F9B   357 000C:0FDF   358 000C:0FF5
   359 000C:0FFE   360 000C:100E   361 000C:1024   362 000C:102F
   363 000C:1065   366 000C:1069   367 000C:106D   368 000C:107B
   369 000C:10AE   370 000C:10F4   371 000C:112A   372 000C:1160
   373 000C:1168   374 000C:1176   376 000C:1182   380 000C:1186
   381 000C:1189   382 000C:119A   387 000C:11AC   388 000C:11B0
   389 000C:11BD   390 000C:11C5   391 000C:11D1   393 000C:11E7
   394 000C:11FB   399 000C:11FF   400 000C:1203   401 000C:1210
   402 000C:1218   404 000C:1224   405 000C:122B   407 000C:122D
   408 000C:1242   409 000C:125A   410 000C:1262   415 000C:1266
   416 000C:126A   417 000C:1277   418 000C:1280   420 000C:128C
   421 000C:1296   422 000C:12A4   425 000C:12A6   426 000C:12B0
   427 000C:12BE   429 000C:12DF   430 000C:12FD   431 000C:130E
   434 000C:1312   435 000C:1315   436 000C:132C   439 000C:1330
   440 000C:1333   441 000C:134A   444 000C:134E   445 000C:1351
   446 000C:1368   449 000C:136C   450 000C:136F   451 000C:1386
   454 000C:138A   455 000C:138D   457 000C:139B   459 000C:13AF
   460 000C:13B9   461 000C:13C4   464 000C:13C6   465 000C:13DE
   468 000C:13EF   471 000C:13F3   472 000C:13F7   474 000C:1408
   477 000C:1478   478 000C:148A   481 000C:149B   484 000C:14A0
   485 000C:14A3   486 000C:14B2   489 000C:14B6   490 000C:14B9
   491 000C:14C3   494 000C:14C7   495 000C:14CA   496 000C:14E0
   499 000C:14E4   500 000C:14E7   501 000C:14F8   502 000C:150E
   505 000C:1512   506 000C:1515   507 000C:1526   508 000C:1531

Line numbers for Runprog(RUNPROG.PAS) segment Runprog

    71 0009:305E    72 0009:3062    73 0009:3067    74 0009:308F
    76 0009:3099    77 0009:30AD    78 0009:30CA    79 0009:30F0
    81 0009:30FA    84 0009:3113    85 0009:3116    86 0009:3149
    87 0009:316B    90 0009:317A    91 0009:317D    92 0009:31AA
    93 0009:31B2    96 0009:31B6    97 0009:31B9    98 0009:31C0
   104 0009:31E8   105 0009:31EC   106 0009:321B   107 0009:3228
   109 0009:3246   110 0009:324B   112 0009:3261   113 0009:3287
   114 0009:32A6   117 0009:32BB   118 0009:32E8   119 0009:330B
   120 0009:330D   121 0009:3310   122 0009:3313   124 0009:3326
   125 0009:3348   126 0009:337C   129 0009:337F   130 0009:33B2
   131 0009:33CF   132 0009:33D4   133 0009:33F1   135 0009:3426
   136 0009:3443   137 0009:3462   138 0009:3473   140 0009:3481
   141 0009:3491   142 0009:34A2   143 0009:34A4   144 0009:34C8
   146 0009:34D2   149 0009:34D6   150 0009:34D9   151 0009:34E3
   154 0009:34E7   155 0009:34EB   156 0009:3500   157 0009:3528
   160 0009:352C   161 0009:352F   162 0009:3555

Line numbers for Taskprop(TASKPROP.PAS) segment Taskprop

    99 000C:18EE   100 000C:18F2   101 000C:1909   102 000C:191A
   105 000C:1996   110 000C:19BE   111 000C:19D3   112 000C:19E8
   113 000C:1A0A   114 000C:1A2C   115 000C:1A5F   118 000C:1A77
   119 000C:1A7B   126 000C:1B4C   127 000C:1B5E   128 000C:1B70
   129 000C:1B75   130 000C:1B85   131 000C:1B95   132 000C:1BB7
   133 000C:1BD9   134 000C:1BE0   138 000C:1BE4   139 000C:1BFC
   141 000C:1C0A   142 000C:1C1E   143 000C:1C5D   145 000C:1CA8
   150 000C:1CAC   151 000C:1CB0   152 000C:1CB5   153 000C:1CEA
   154 000C:1D06   159 000C:1D0A   160 000C:1D0E   161 000C:1D1E
   163 000C:1D2D   164 000C:1D5F   165 000C:1D94   167 000C:1DB8
   170 000C:1DBC   171 000C:1DC0   172 000C:1DCE   173 000C:1DF6
   177 000C:1DFA   178 000C:1DFD   179 000C:1E0E   185 000C:1E12
   186 000C:1E2A   188 000C:1E38   189 000C:1E4C   190 000C:1E72
   191 000C:1EA0   193 000C:1ECB   197 000C:1ECF   198 000C:1ED2
   199 000C:1EE3   204 000C:1EE7   205 000C:1EEB   206 000C:1EF0
   207 000C:1F25   208 000C:1F41   213 000C:1F45   214 000C:1F49
   215 000C:1F59   217 000C:1F68   218 000C:1F9A   219 000C:1FCF
   221 000C:1FF3   224 000C:1FF7   225 000C:1FFB   226 000C:2009
   227 000C:2031   231 000C:2035   232 000C:2038   233 000C:2051
   234 000C:206A   238 000C:206E   239 000C:2071   240 000C:208A
   241 000C:20A3   245 000C:20A7   246 000C:20AA   247 000C:20B9
   248 000C:20D2

Line numbers for Slider(SLIDER.PAS) segment Slider

   119 000C:268C   120 000C:2690   121 000C:26A7   122 000C:26B6
   123 000C:26C5   125 000C:26DA   126 000C:26E7   127 000C:26FB
   128 000C:272F   129 000C:2739   130 000C:2743   131 000C:275D
   133 000C:277F   136 000C:2783   137 000C:2794   138 000C:27A7
   139 000C:27B1   140 000C:27BF   141 000C:27C6   142 000C:27D4
   143 000C:27E2   144 000C:27E8   145 000C:27EF   146 000C:27F6
   147 000C:27FD   148 000C:2803   149 000C:2809   150 000C:2810
   151 000C:2826   152 000C:282C   153 000C:2835   154 000C:2841
   155 000C:2845   158 000C:285C   159 000C:285F   160 000C:2874
   161 000C:2889   162 000C:288D   164 000C:2894   165 000C:289F
   167 000C:28A7   168 000C:28B4   171 000C:28C3   172 000C:28C6
   174 000C:28D3   175 000C:28DB   177 000C:28E4   180 000C:28E8
   181 000C:28EB   183 000C:28F8   184 000C:2900   186 000C:2909
   189 000C:290D   190 000C:2910   192 000C:2927   193 000C:293A
   195 000C:2943   198 000C:2947   199 000C:294A   201 000C:2957
   202 000C:295F   204 000C:2968   207 000C:296C   208 000C:296F
   210 000C:2986   211 000C:2999   213 000C:29A2   216 000C:29A6
   217 000C:29A9   219 000C:29C0   220 000C:29D3   221 000C:29DE
   222 000C:29E6   224 000C:29F2   227 000C:29F6   228 000C:29F9
   230 000C:2A06   231 000C:2A0E   232 000C:2A26   234 000C:2A32
   237 000C:2A36   238 000C:2A39   240 000C:2A46   241 000C:2A4E
   242 000C:2A66   244 000C:2A72   247 000C:2A76   248 000C:2A79
   249 000C:2A90   250 000C:2AA5   252 000C:2AB2   253 000C:2ABA
   254 000C:2AD8   256 000C:2AE7   259 000C:2AEB   260 000C:2AEE
   262 000C:2AFB   263 000C:2B03   265 000C:2B0C   268 000C:2B10
   269 000C:2B13   271 000C:2B20   272 000C:2B28   274 000C:2B31
   277 000C:2B35   278 000C:2B38   279 000C:2B43   280 000C:2B62
   282 000C:2B6F   283 000C:2B77   285 000C:2B80   288 000C:2B84
   289 000C:2B87   290 000C:2B97   291 000C:2BA6   294 000C:2BAA
   295 000C:2BAD   296 000C:2BBF   297 000C:2BCE   304 000C:2BD2
   305 000C:2BD6   308 000C:2BE4   310 000C:2C09   312 000C:2C14
   313 000C:2C1C   314 000C:2C42   315 000C:2C47   316 000C:2C51
   317 000C:2C63   318 000C:2C6E   322 000C:2C70   323 000C:2C7B
   324 000C:2CA1   325 000C:2CB6   326 000C:2CC1   327 000C:2CC6
   332 000C:2CCD   333 000C:2CE8   335 000C:2CF6   336 000C:2D05
   337 000C:2D17   338 000C:2D2C   339 000C:2D40   340 000C:2D55
   341 000C:2D67   342 000C:2D7D   343 000C:2D92   344 000C:2DA4
   345 000C:2DB6   346 000C:2DC6   347 000C:2DD8   348 000C:2DEA
   349 000C:2DFE   350 000C:2E10   353 000C:2E12   354 000C:2E24
   357 000C:2E3A   359 000C:2E48   361 000C:2E53   363 000C:2E5E
   364 000C:2E6A   366 000C:2E7A   368 000C:2EC4   369 000C:2EE0
   370 000C:2EF2   371 000C:2F01   372 000C:2F18   373 000C:2F2C
   374 000C:2F4D   376 000C:2F58   377 000C:2F6A   378 000C:2F7B
   379 000C:2F94   380 000C:2FAA   382 000C:2FCD   383 000C:2FD8
   384 000C:2FDB   387 000C:2FDE   389 000C:2FEC   390 000C:2FF8
   392 000C:3008   394 000C:3052   395 000C:306E   396 000C:3080
   397 000C:308F   398 000C:30A6   399 000C:30BA   400 000C:30DB
   402 000C:30E6   403 000C:30F8   404 000C:3109   405 000C:3122
   406 000C:3138   408 000C:315B   409 000C:3166   413 000C:3169
   414 000C:3178   421 000C:317C   422 000C:3180   423 000C:318D
   425 000C:31A2   426 000C:31B7   429 000C:31C5   431 000C:31FA
   432 000C:3204   433 000C:320D   434 000C:3219   436 000C:3228
   437 000C:322E   439 000C:3260   440 000C:326D   441 000C:32A3
   445 000C:32A6   447 000C:32DE   448 000C:32E9   449 000C:32F8
   450 000C:32FF   452 000C:3308   453 000C:330E   455 000C:3340
   456 000C:334D   459 000C:3383   461 000C:339E   463 000C:33AC
   464 000C:33CF   465 000C:33E5   466 000C:33E7   467 000C:3402
   469 000C:3410   470 000C:3420   471 000C:3432   472 000C:3449
   473 000C:345D   474 000C:3474   475 000C:3486   476 000C:349C
   477 000C:34B5   478 000C:34CE   479 000C:34E0   480 000C:34F9
   481 000C:3514   482 000C:352C   485 000C:352E   486 000C:3540
   489 000C:355C   490 000C:356C   493 000C:3570   494 000C:3573
   495 000C:358B   496 000C:35A5   498 000C:35CA   499 000C:35D3
   500 000C:35EB   501 000C:35F5   502 000C:35F8   504 000C:3601
   505 000C:360C   506 000C:3616   508 000C:362A   510 000C:3641
   511 000C:364E   513 000C:3662   514 000C:3677   515 000C:3692
   517 000C:36AD   520 000C:36B1   521 000C:36B4   522 000C:36CC
   523 000C:36DB   526 000C:36DF   527 000C:36E2   528 000C:36F6
   529 000C:3704   530 000C:370C   533 000C:3757   535 000C:37A3
   538 000C:37A7   539 000C:37AA   540 000C:37BD   541 000C:37C8
   542 000C:37CE   543 000C:37EA   544 000C:3806   545 000C:381C
   548 000C:3832   549 000C:3838   550 000C:3854   551 000C:3870
   552 000C:3886   554 000C:389A   555 000C:38B5   556 000C:38D0

Line numbers for Strtprop(STRTPROP.PAS) segment Strtprop

   165 000D:050E   166 000D:0512   167 000D:0523   169 000D:053E
   170 000D:0558   171 000D:0587   172 000D:059E   173 000D:05B5
   174 000D:05F6   175 000D:0625   176 000D:0630   180 000D:0671
   181 000D:067B   183 000D:06A1   184 000D:06B2   188 000D:06B6
   191 000D:06BA   192 000D:06C8   194 000D:06E9   197 000D:0721
   198 000D:073F   201 000D:079A   203 000D:07B6   205 000D:0822
   206 000D:0830   207 000D:084D   208 000D:0868   212 000D:086C
   213 000D:086F   214 000D:0881   215 000D:088A   220 000D:088E
   221 000D:0892   222 000D:08AD   224 000D:08DA   225 000D:08EA
   227 000D:090D   228 000D:0915   236 000D:091F   237 000D:0923
   238 000D:092F   240 000D:0946   244 000D:095F   245 000D:096B
   246 000D:0981   247 000D:099F   248 000D:09A9   250 000D:09C0
   251 000D:09C3   253 000D:09D1   254 000D:09EB   256 000D:0A17
   258 000D:0A2B   259 000D:0A41   260 000D:0A57   263 000D:0A61
   264 000D:0A6A   265 000D:0A7C   268 000D:0A88   271 000D:0A92
   272 000D:0A96   273 000D:0AA0   274 000D:0AC7   275 000D:0B09
   278 000D:0B13   279 000D:0B17   280 000D:0B2F   281 000D:0B50
   282 000D:0B77   283 000D:0BB4   288 000D:0BB8   289 000D:0BBC
   290 000D:0BC1   291 000D:0BD9   293 000D:0BF5   294 000D:0C11
   297 000D:0C47   298 000D:0C68   299 000D:0C87   302 000D:0C98
   307 000D:0C9C   309 000D:0CA0   310 000D:0CB3   311 000D:0CC3
   313 000D:0CCF   314 000D:0CF0   315 000D:0D06   316 000D:0D08
   322 000D:0D0C   323 000D:0D10   324 000D:0D1E   326 000D:0D31
   327 000D:0D4D   328 000D:0D70   329 000D:0D72   330 000D:0D82
   331 000D:0D8C   333 000D:0D9D   336 000D:0DA1   337 000D:0DA5
   338 000D:0DD1   341 000D:0DD5   342 000D:0DD9   343 000D:0E05
   346 000D:0E09   347 000D:0E0D   348 000D:0E39   351 000D:0E3D
   352 000D:0E40   353 000D:0E4F   356 000D:0E59   357 000D:0E5D
   358 000D:0E62   359 000D:0E84   360 000D:0E92   361 000D:0EB4
   362 000D:0EBB   363 000D:0EC7   364 000D:0ED1   365 000D:0ED2
   371 000D:0EDB   372 000D:0EDF   375 000D:0EED   376 000D:0F02
   379 000D:0F0A   380 000D:0F32   381 000D:0F4E   387 000D:0F51
   388 000D:0F72   389 000D:0F81   391 000D:0FB0   392 000D:0FD7
   393 000D:0FD9   394 000D:0FDB   395 000D:1005   398 000D:1021
   404 000D:1025   406 000D:1029   407 000D:1037   408 000D:1049
   409 000D:104C   410 000D:1078   411 000D:10A4   413 000D:10CE
   414 000D:10EE   415 000D:1103   416 000D:1114   421 000D:111E
   422 000D:1122   424 000D:1130   425 000D:1143   426 000D:1153
   428 000D:1161   429 000D:1192   430 000D:11A8   431 000D:11AA
   433 000D:11B2   438 000D:11FF   440 000D:1203   441 000D:121A
   442 000D:122B   443 000D:124A   444 000D:1262   446 000D:126C
   448 000D:12E0   450 000D:12EC   452 000D:12FA   453 000D:1303
   454 000D:131C   455 000D:132A   456 000D:1343   457 000D:134C
   459 000D:1351   460 000D:135B   461 000D:1375   462 000D:1386
   463 000D:139B   464 000D:13C3   465 000D:13F1   466 000D:1402
   468 000D:1419   470 000D:1455   471 000D:1485   476 000D:1489
   477 000D:148D   479 000D:149B   480 000D:14A3   481 000D:14AE
   483 000D:14CB   485 000D:152A   489 000D:1589   490 000D:15A3
   491 000D:15BD   492 000D:15D7   493 000D:15F1   494 000D:160B
   495 000D:1625   500 000D:1631   501 000D:1635   502 000D:1643
   503 000D:1653   504 000D:1661   505 000D:16C3   506 000D:16CD
   507 000D:16D5   511 000D:16EF   512 000D:16F2   513 000D:16F9
   514 000D:1710   517 000D:1745   518 000D:1749   519 000D:1759
   520 000D:176B   521 000D:17A2   522 000D:17E4   523 000D:17E9
   524 000D:17F4   526 000D:1807   527 000D:180C   528 000D:1818
   529 000D:1826   530 000D:1832   531 000D:1851   532 000D:1864
   533 000D:1883   534 000D:189B   535 000D:18A7   536 000D:18B3
   537 000D:18B8   538 000D:18C4   539 000D:18DF   541 000D:18E0
   542 000D:18EA   543 000D:18F1   551 000D:18F5   553 000D:190D
   555 000D:191B   556 000D:192A   557 000D:1940   558 000D:1964
   559 000D:1973   561 000D:1981   562 000D:199A   563 000D:19A9
   565 000D:19AF   566 000D:19C1   567 000D:19D3   568 000D:19E4
   569 000D:19ED   570 000D:1A10   571 000D:1A1F   572 000D:1A21
   573 000D:1A33   574 000D:1A41   575 000D:1A6B   576 000D:1A8B
   577 000D:1AAB   578 000D:1AD1   580 000D:1AE6   581 000D:1AF9
   582 000D:1AFD   585 000D:1B0D   586 000D:1B31   587 000D:1B45
   588 000D:1B4B   591 000D:1B5D   592 000D:1B6D   596 000D:1B7D
   597 000D:1B8B   598 000D:1B95   600 000D:1BBD   604 000D:1BE3
   605 000D:1BF4   607 000D:1C09   608 000D:1C0D   610 000D:1C33
   611 000D:1C43   613 000D:1C53   614 000D:1C64   617 000D:1C66
   620 000D:1C6A   621 000D:1C6D   622 000D:1C77   625 000D:1C7B
   626 000D:1C7E   627 000D:1C88   628 000D:1C92   631 000D:1C96
   632 000D:1C9A   633 000D:1CA8   634 000D:1CE0   635 000D:1CF2
   639 000D:1CF6   640 000D:1CF9   641 000D:1D13   644 000D:1D17
   645 000D:1D1A   646 000D:1D37   647 000D:1D54   648 000D:1D65
   651 000D:1D69   652 000D:1D6C   653 000D:1D7F   655 000D:1D90
   658 000D:1D94   659 000D:1D98   660 000D:1DBE   661 000D:1E04
   662 000D:1E3A   663 000D:1E70   669 000D:1E74   670 000D:1E78
   672 000D:1E84   673 000D:1E9A   674 000D:1EC1   676 000D:1ED3
   681 000D:1ED8   682 000D:1EDC   683 000D:1EFE   686 000D:1F31
   687 000D:1F51   689 000D:1F66   690 000D:1F79   695 000D:1F7D
   696 000D:1F81   697 000D:1FA3   699 000D:1FB1   700 000D:1FD1
   701 000D:1FE6   703 000D:1FF9   708 000D:1FFD   709 000D:2001
   710 000D:2023   711 000D:2046   715 000D:204A   716 000D:206A
   717 000D:208C   719 000D:20C9   724 000D:20CD   725 000D:20D1
   726 000D:20F3   727 000D:2116   732 000D:211A   733 000D:211E
   736 000D:213F   737 000D:2149   738 000D:214E   739 000D:216B
   740 000D:218F   741 000D:21AB   744 000D:21AD   745 000D:21B2
   746 000D:21DD   748 000D:2200   750 000D:220F   756 000D:2213
   757 000D:2217   760 000D:2235   761 000D:223A   762 000D:226A
   763 000D:228D   765 000D:229C   775 000D:22A3   776 000D:22A7
   778 000D:22B1   779 000D:22DC   781 000D:22F6   782 000D:230F
   784 000D:2311   785 000D:2317   786 000D:231C   792 000D:2332
   793 000D:2336   796 000D:2365   797 000D:2372   799 000D:2375
   800 000D:237A   802 000D:238F   803 000D:23B3   804 000D:23D0
   805 000D:23EF   806 000D:240E   807 000D:242D   809 000D:24A8
   810 000D:24C6   812 000D:24E2   813 000D:24F5   815 000D:24FB
   816 000D:250B   818 000D:252A   819 000D:252D   820 000D:2530
   821 000D:253D   822 000D:254E   850 000D:2598   851 000D:259C
   852 000D:25B2   853 000D:25C0   854 000D:25D0   855 000D:25E9
   856 000D:25F3   858 000D:2603   860 000D:2646   861 000D:2666
   862 000D:2679   864 000D:268F   865 000D:26AA   866 000D:26C2
   867 000D:26CC   870 000D:277B   871 000D:2796   872 000D:2799
   874 000D:27AC   875 000D:27F6   876 000D:280D   878 000D:281D
   879 000D:283C   880 000D:2853   881 000D:2861   884 000D:2863
   886 000D:2865   887 000D:286D   888 000D:2879   889 000D:2883
   890 000D:2884   894 000D:2888   895 000D:288B   896 000D:289A
   897 000D:28B3   904 000D:28B7   905 000D:28BB   907 000D:28D4
   909 000D:28FE   912 000D:2902   913 000D:2905   914 000D:293E
   917 000D:2942   918 000D:2945   919 000D:2950   920 000D:295B
   922 000D:295D   923 000D:2960   924 000D:2977   925 000D:298E
   926 000D:299B

Line numbers for MenuEdit(MENUEDIT.PAS) segment MenuEdit

    93 000D:2C89    94 000D:2C8C    95 000D:2C9D    97 000D:2CBD
    98 000D:2CE6    99 000D:2D0F   100 000D:2D38   103 000D:2D48
   104 000D:2D4B   105 000D:2D56   106 000D:2D76   107 000D:2D7E
   112 000D:2DF2   113 000D:2DF6   115 000D:2E06   116 000D:2E30
   117 000D:2E45   118 000D:2E94   119 000D:2EA9   120 000D:2EF8
   121 000D:2F0D   122 000D:2F5C   123 000D:2F71   124 000D:2FBF
   125 000D:2FD4   127 000D:2FF8   128 000D:3002   131 000D:3006
   132 000D:300A   133 000D:3039   136 000D:3044   137 000D:3048
   140 000D:3056   141 000D:30A7   142 000D:30D7   143 000D:30F8
   145 000D:3103   146 000D:314C   147 000D:3155   150 000D:315C
   154 000D:3160   155 000D:3164   157 000D:318D   158 000D:3195
   160 000D:319C   163 000D:31A0   164 000D:31A4   168 000D:3231
   171 000D:323D   172 000D:3241   173 000D:3250   175 000D:3263
   176 000D:3277   177 000D:328B   178 000D:32A0   179 000D:32B5
   180 000D:32BB   182 000D:3307   184 000D:331B   185 000D:332D
   187 000D:3337   188 000D:334B   189 000D:3358   199 000D:335F
   200 000D:3363   201 000D:3387   204 000D:338B   205 000D:338E
   206 000D:3398   211 000D:33A5   212 000D:33A9   215 000D:33E6
   216 000D:3419   218 000D:341C   221 000D:3460   222 000D:3465
   223 000D:346B   225 000D:34A0   226 000D:34DA   227 000D:34DD
   228 000D:34DF   231 000D:34E4   232 000D:351C   233 000D:3549
   234 000D:356B   235 000D:358C

Line numbers for Refedit(REFEDIT.PAS) segment Refedit

   101 0009:3891   102 0009:3895   103 0009:389C   104 0009:38D1
   107 0009:38DC   108 0009:38E0   109 0009:38E5   110 0009:390A
   113 0009:391D   114 0009:3920   115 0009:3931   117 0009:3951
   118 0009:397A   119 0009:39A3   120 0009:39CC   123 0009:39DC
   124 0009:39DF   125 0009:39EA   126 0009:3A0A   129 0009:3A0E
   130 0009:3A11   131 0009:3A1B   132 0009:3A2F   135 0009:3A33
   136 0009:3A37   137 0009:3A3F   138 0009:3A47   139 0009:3A78
   140 0009:3A97   142 0009:3ABA   143 0009:3AC4   144 0009:3ACE
   147 0009:3AD2   148 0009:3AD6   149 0009:3B05   152 0009:3B10
   153 0009:3B14   155 0009:3B22   156 0009:3B73   157 0009:3BA3
   158 0009:3BC4   160 0009:3BCF   161 0009:3C18   162 0009:3C21
   165 0009:3C28   169 0009:3C2C   170 0009:3C2F   172 0009:3C48
   173 0009:3C52   174 0009:3C63   178 0009:3C67   179 0009:3C6A
   180 0009:3C7B   183 0009:3C7F   184 0009:3C83   185 0009:3CA7
   188 0009:3CAB   189 0009:3CAE   190 0009:3CB8   197 0009:3CBC
   198 0009:3CC0   199 0009:3CCB   200 0009:3CF6   201 0009:3D11
   202 0009:3D40   205 0009:3D44   206 0009:3D48   207 0009:3D50
   208 0009:3D79   213 0009:3D7D   215 0009:3D81   216 0009:3D8C
   217 0009:3D9C   218 0009:3DD4   219 0009:3E01   220 0009:3E23
   221 0009:3E44   222 0009:3E4F

Line numbers for IconDlg(ICONDLG.PAS) segment IconDlg

    93 000D:384C    94 000D:385D    95 000D:3870    96 000D:3878
    97 000D:387E    98 000D:3899   101 000D:38B0   102 000D:38B3
   103 000D:38C1   104 000D:38CE   107 000D:38DD   108 000D:38E0
   109 000D:38F6   112 000D:3900   113 000D:3904   114 000D:3926
   115 000D:3934   116 000D:394D   117 000D:395C   118 000D:397D
   120 000D:398F   121 000D:3993   122 000D:39AC   123 000D:39C0
   125 000D:39CA   126 000D:39FB   128 000D:3A39   129 000D:3A3B
   130 000D:3A3F   131 000D:3A4B   132 000D:3A55   133 000D:3A56
   142 000D:3A9E   143 000D:3AA2   144 000D:3AC2   145 000D:3ACE
   146 000D:3AFC   148 000D:3B05   149 000D:3B20   150 000D:3B4C
   151 000D:3B53   154 000D:3BA2   155 000D:3BA4   156 000D:3BAC
   157 000D:3BC4   158 000D:3BD1   159 000D:3BDF   160 000D:3C1E
   161 000D:3C2D   162 000D:3C32   163 000D:3C46   165 000D:3C4C
   166 000D:3C62   167 000D:3C65   168 000D:3C79   169 000D:3C7B
   170 000D:3C99   171 000D:3CC1   172 000D:3CD8   173 000D:3CE2
   174 000D:3CEE   175 000D:3CFB   176 000D:3CFC   177 000D:3D0D
   180 000D:3D11   181 000D:3D14   182 000D:3D31   183 000D:3D37
   184 000D:3D3E   187 000D:3D42   188 000D:3D46   189 000D:3D51
   190 000D:3D7D   192 000D:3D87   193 000D:3D9F   194 000D:3DB2
   199 000D:3DB6   200 000D:3DBA   201 000D:3DF9   205 000D:3DFD
   206 000D:3E15   207 000D:3E2E   208 000D:3E69   212 000D:3E6D
   213 000D:3E70   214 000D:3E95   217 000D:3E99   218 000D:3E9D
   220 000D:3EAB   221 000D:3EC4   223 000D:3EE7   226 000D:3EEB
   227 000D:3EEF   228 000D:3F16   229 000D:3F35   232 000D:3F39
   233 000D:3F3C   234 000D:3F4E   237 000D:3F52   238 000D:3F55
   240 000D:3F70   241 000D:3F77   243 000D:3F85

Line numbers for ProgConv(PROGCONV.PAS) segment ProgConv

    80 0008:3BBD    81 0008:3BC1    82 0008:3BD1    83 0008:3BE5
    84 0008:3BF3    85 0008:3C0E    86 0008:3C2A    87 0008:3C36
    88 0008:3C41    90 0008:3C44    91 0008:3C4C    94 0008:3C58
    95 0008:3C5B    97 0008:3C69    98 0008:3C80   100 0008:3C90
   108 0008:3CBF   109 0008:3CC3   110 0008:3CD9   111 0008:3CE7
   112 0008:3CF4   113 0008:3D22   115 0008:3D3B   116 0008:3D47
   117 0008:3D55   118 0008:3D8A   119 0008:3D95   120 0008:3D9E
   121 0008:3DB1   122 0008:3DC0   124 0008:3DDB   125 0008:3DE7
   126 0008:3DF2   127 0008:3DF3   129 0008:3E17   130 0008:3E1B
   131 0008:3E20   132 0008:3E25   133 0008:3E2A   134 0008:3E2F
   139 0008:3E34   142 0008:3F0E   143 0008:3F1A   145 0008:3F8F
   146 0008:3F9B   147 0008:3FA7   148 0008:3FB3   149 0008:3FBD
   150 0008:3FC8   151 0008:3FC9   154 0008:3FCD   155 0008:3FD0
   156 0008:3FE2

Line numbers for ChkList(CHKLIST.PAS) segment ChkList

   144 000E:20A7   145 000E:20AA   146 000E:20C1   147 000E:20D8
   149 000E:20E3   150 000E:20FD   151 000E:2117   154 000E:2119
   155 000E:2133   157 000E:214D   160 000E:2151   161 000E:2154
   162 000E:215F   163 000E:216A   164 000E:2174   167 000E:2178
   168 000E:2189   169 000E:219C   170 000E:21A8   171 000E:21B4
   172 000E:21C0   173 000E:21CC   174 000E:21D5   175 000E:21F2
   176 000E:2202   179 000E:2219   180 000E:221C   181 000E:222B
   182 000E:2238   185 000E:2247   186 000E:224A   187 000E:2261
   190 000E:2265   191 000E:2268   192 000E:2273   193 000E:227A
   194 000E:2286   200 000E:228A   201 000E:22A2   202 000E:22AB
   204 000E:22B9   205 000E:22D4   206 000E:22ED   207 000E:22FC
   208 000E:230D   209 000E:2329   210 000E:2358   213 000E:23A8
   216 000E:23EE   217 000E:23F1   218 000E:23FC   219 000E:240F
   220 000E:242D   221 000E:2443   222 000E:245F   227 000E:2463
   228 000E:2467   229 000E:2476   230 000E:247B   232 000E:24A8
   233 000E:24C1   234 000E:24C4   235 000E:24C6   236 000E:24D2
   237 000E:24DE   242 000E:24E2   243 000E:24E6   244 000E:24F5
   245 000E:24FA   247 000E:2527   248 000E:2547   249 000E:254A
   250 000E:254C   255 000E:2550   256 000E:2554   257 000E:2578
   258 000E:25A5   259 000E:25AF   264 000E:25B3   265 000E:25B7
   266 000E:25C1   267 000E:25E5   268 000E:2617   271 000E:261B
   272 000E:261E   273 000E:2629   274 000E:2634   281 000E:2636
   282 000E:2639   283 000E:2646

Line numbers for ScrTree(SCRTREE.PAS) segment ScrTree

    75 000C:39DF    76 000C:39F0    77 000C:3A03    78 000C:3A0D
    83 000C:3A24    86 000C:3A28    88 000C:3A3D    89 000C:3A74
    90 000C:3A92    91 000C:3A94    92 000C:3AA4    95 000C:3AA8
    96 000C:3AAC    97 000C:3AB4    98 000C:3AFB    99 000C:3B11
   104 000C:3B1B   105 000C:3B1F   106 000C:3B40   107 000C:3B6F
   108 000C:3B7D   109 000C:3B85   112 000C:3B8F   113 000C:3B93
   115 000C:3BA0   116 000C:3BA8   117 000C:3BD2   118 000C:3BD8
   119 000C:3C00   121 000C:3C0B   124 000C:3C0F   125 000C:3C13
   126 000C:3C58   132 000C:3C5F   135 000C:3C63   136 000C:3C73
   137 000C:3C81   138 000C:3C97   139 000C:3CA1   140 000C:3CBB
   141 000C:3CE4   143 000C:3CF4   148 000C:3CF8   149 000C:3CFC
   151 000C:3D0A   152 000C:3D1D   153 000C:3D33   154 000C:3D3B
   155 000C:3D43   157 000C:3D4B   158 000C:3D6B   159 000C:3D6F
   161 000C:3D73   163 000C:3D7B   164 000C:3D9B   165 000C:3D9F
   166 000C:3DA3   167 000C:3DAB   168 000C:3DB3   170 000C:3DBB
   171 000C:3DDB   172 000C:3DDF   174 000C:3DE3   176 000C:3DEB
   177 000C:3E0B   178 000C:3E0F   179 000C:3E11   181 000C:3E21

Line numbers for Diskprop(DISKPROP.PAS) segment Diskprop

    98 000E:2914   100 000E:2918   101 000E:295A   102 000E:296B
   103 000E:2981   104 000E:29A1   105 000E:29CB   106 000E:29D5
   107 000E:29E0   109 000E:29F0   110 000E:29FF   112 000E:2A13
   113 000E:2A22   114 000E:2A46   115 000E:2A75   116 000E:2A99
   117 000E:2AC8   118 000E:2AF4   119 000E:2B34   121 000E:2B43
   122 000E:2B59   124 000E:2B6F   125 000E:2B84   126 000E:2BA1
   130 000E:2C13   132 000E:2C30   133 000E:2C41   135 000E:2C52
   138 000E:2C64   140 000E:2C68   141 000E:2CA0   142 000E:2CB1
   145 000E:2CB5   146 000E:2CB8   147 000E:2CC9   148 000E:2CD2
   152 000E:2CD6   153 000E:2CD9   154 000E:2D03   158 000E:2D07
   159 000E:2D0A   161 000E:2D13   162 000E:2D21   165 000E:2D25
   167 000E:2D28   168 000E:2D35   172 000E:2D39   174 000E:2D3C
   175 000E:2D4A   178 000E:2D4E   179 000E:2D51   180 000E:2D63
   183 000E:2D67   185 000E:2D6B   186 000E:2D70   187 000E:2D93
   188 000E:2D98   191 000E:2D9C   193 000E:2DA0   196 000E:2DC4
   197 000E:2DC9   198 000E:2DEC   200 000E:2DF5   203 000E:2DFF
   204 000E:2E03   205 000E:2E08   206 000E:2E2A   207 000E:2E38
   208 000E:2E49   209 000E:2E50   210 000E:2E5C   211 000E:2E66
   212 000E:2E67

Line numbers for Win95Pie(WIN95PIE.PAS) segment Win95Pie

    93 000E:310E    94 000E:311F    95 000E:3132    96 000E:313E
    97 000E:314A    98 000E:3154    99 000E:3162   100 000E:3170
   101 000E:317E   102 000E:318C   103 000E:319A   104 000E:31A8
   105 000E:31B4   108 000E:31CB   109 000E:31CE   110 000E:31D8
   111 000E:31E2   116 000E:31FC   117 000E:3200   118 000E:322F
   119 000E:3265   120 000E:32AA   121 000E:32BD   122 000E:32D2
   123 000E:32D7   124 000E:32E9   126 000E:32F4   127 000E:330D
   129 000E:3330   130 000E:334B   131 000E:3366   134 000E:33A8
   135 000E:33C3   136 000E:33DE   138 000E:33FA   139 000E:3415
   140 000E:3425   142 000E:343E   143 000E:3454   145 000E:3470
   146 000E:348B   148 000E:34B6   149 000E:34D1   150 000E:34D8
   152 000E:3503   153 000E:351E   154 000E:3549   157 000E:3573
   158 000E:3583   160 000E:359C   161 000E:35B7   164 000E:35E0
   167 000E:35E8   168 000E:35EC   169 000E:360E   172 000E:3615
   173 000E:3618   174 000E:3620   175 000E:362B   176 000E:3632
   179 000E:3636   180 000E:3639   181 000E:3649   182 000E:365C
   183 000E:3663   186 000E:3667   187 000E:366A   188 000E:367A
   189 000E:368D   190 000E:3694   193 000E:3698   194 000E:369B
   195 000E:36AE   196 000E:36B5   199 000E:36B9   200 000E:36BC
   201 000E:36CF   202 000E:36D6   205 000E:36DA   206 000E:36DD
   207 000E:36F0   208 000E:36F7   211 000E:36FB   212 000E:36FE
   213 000E:3711   214 000E:3718   217 000E:371C   218 000E:371F
   219 000E:3732   220 000E:3739

Line numbers for Internet(INTERNET.PAS) segment Internet

    50 000E:37BD    51 000E:37C1    52 000E:37D4    53 000E:37D8
    54 000E:37DF    55 000E:3808    56 000E:380C    59 000E:3813
    60 000E:3824    61 000E:3837    62 000E:3843    63 000E:384D
    66 000E:3889    67 000E:388D    70 000E:38A7    72 000E:38E0
    74 000E:38EA    77 000E:38EE    78 000E:38F2    79 000E:38F7
    80 000E:3921    81 000E:392E    84 000E:3957    85 000E:395B
    86 000E:396D    87 000E:3973    88 000E:3981    89 000E:3997
    90 000E:39A3    91 000E:39AD    92 000E:39AE    95 000E:39E0
    96 000E:39E4    97 000E:3A0E    98 000E:3A14    99 000E:3A22
   100 000E:3A5B   101 000E:3A67   102 000E:3A71   103 000E:3A72
   111 000E:3A79   112 000E:3A89   113 000E:3AA1   114 000E:3ACA
   115 000E:3AD8   120 000E:3AEB   121 000E:3AEF   122 000E:3AF4
   123 000E:3B19   124 000E:3B2C   125 000E:3B32   131 000E:3B6E
   132 000E:3B72   133 000E:3B79   134 000E:3B80   135 000E:3B84
   136 000E:3B95   137 000E:3BA7   138 000E:3BB0   139 000E:3BBE
   140 000E:3BD3   141 000E:3BE1   142 000E:3C50   143 000E:3C62
   144 000E:3C94   145 000E:3CA0   146 000E:3CAB   147 000E:3CAC
   148 000E:3CB8   149 000E:3CC2   150 000E:3CC3

Line numbers for ApHolder(APHOLDER.PAS) segment ApHolder

    93 000F:3C30    94 000F:3C41    95 000F:3C54    96 000F:3C65
    97 000F:3C6C   100 000F:3C83   101 000F:3C87   102 000F:3C94
   104 000F:3C9E   105 000F:3CB4   106 000F:3CCA   107 000F:3CDC
   108 000F:3CEE   109 000F:3D02   110 000F:3D18   111 000F:3D2A
   112 000F:3D40   113 000F:3D56   114 000F:3D6C   116 000F:3D96
   118 000F:3D9A   119 000F:3DAC   122 000F:3DBE   123 000F:3DCB
   126 000F:3DDA   127 000F:3DDE   128 000F:3DEB   130 000F:3DF5
   131 000F:3E32   132 000F:3E4D   133 000F:3E64   134 000F:3E76
   135 000F:3E91   136 000F:3EAA   137 000F:3EC3   138 000F:3EDC
   139 000F:3EF5   140 000F:3F0E   141 000F:3F27   142 000F:3F40
   143 000F:3F59   144 000F:3F72   145 000F:3F8B   147 000F:3FB5
   149 000F:3FBF   150 000F:3FD8   152 000F:3FF1

Line numbers for Hooks(HOOKS.PAS) segment Hooks

    69 000E:3CD7    71 000E:3CDB    72 000E:3D09    73 000E:3D1E
    74 000E:3D33    75 000E:3D48    76 000E:3D5D    77 000E:3D72
    78 000E:3D87    79 000E:3D9C    80 000E:3DB1    81 000E:3DC6
    82 000E:3DDB    83 000E:3DF0    84 000E:3E05    85 000E:3E1A
    86 000E:3E2F    87 000E:3E44    88 000E:3E59    89 000E:3E6E
    90 000E:3E83    91 000E:3E98    92 000E:3EAD    93 000E:3EC2
    96 000E:3EC4    97 000E:3EC7    98 000E:3ED0   100 000E:3ED2
   101 000E:3ED5   102 000E:3ED8   103 000E:3EE5

Line numbers for TabPanel(TABPANEL.PAS) segment TabPanel

    97 0011:0336    98 0011:0347   102 0011:035A   103 0011:0368
   104 0011:0385   105 0011:039B   106 0011:03A5   109 0011:03BC
   110 0011:03BF   111 0011:03CE   112 0011:03DB   115 0011:03EA
   116 0011:03ED   117 0011:0404   118 0011:0410   123 0011:0414
   124 0011:0418   125 0011:0423   126 0011:0440   127 0011:045B
   129 0011:0480   130 0011:048C   137 0011:0490   138 0011:0494
   140 0011:04C6   141 0011:04CE   142 0011:04E5   144 0011:04EB
   146 0011:04F7   147 0011:04FB   148 0011:051B   151 0011:0523
   152 0011:052E   153 0011:0535   156 0011:0544   157 0011:054A
   158 0011:055B   160 0011:0564   162 0011:0577   165 0011:057B
   166 0011:057E   167 0011:0595   168 0011:05B0   169 0011:05C3
   171 0011:05CF   172 0011:05E8   173 0011:05FF   175 0011:0623
   180 0011:0627   181 0011:062B   183 0011:0639   184 0011:0663
   185 0011:0686   186 0011:0696   188 0011:06B2   189 0011:06BD
   192 0011:06C6   198 0011:06CA   199 0011:06CD   204 0011:0701
   205 0011:070D   207 0011:0731   212 0011:0735   213 0011:0739
   214 0011:0761   215 0011:0778   218 0011:077C   219 0011:077F
   220 0011:078F   221 0011:0799   224 0011:079D   225 0011:07A0
   226 0011:07B2   227 0011:07C1   230 0011:07C5   231 0011:07C8
   232 0011:07DC   233 0011:07F9   234 0011:0804   237 0011:0808
   239 0011:080C   240 0011:0838   247 0011:083C   248 0011:0840
   250 0011:0861   251 0011:0870   252 0011:0881   253 0011:089C
   254 0011:08BB   255 0011:08CD   256 0011:08DC   257 0011:08F7
   260 0011:08FA   261 0011:090C   262 0011:091D   263 0011:0938
   264 0011:095A   265 0011:096C   266 0011:097E   268 0011:099A
   271 0011:099E   272 0011:09A2   274 0011:09CB   275 0011:09DD
   276 0011:09EC   277 0011:0A05   278 0011:0A26   281 0011:0A29
   282 0011:0A3B   285 0011:0A4C   286 0011:0A5E   287 0011:0A6D
   288 0011:0A86   289 0011:0AA7   292 0011:0ABC   298 0011:0AC6
   299 0011:0ACA   300 0011:0AE0   301 0011:0AF3   302 0011:0B09
   303 0011:0B17   305 0011:0B27   306 0011:0B34   307 0011:0B4E
   309 0011:0B7E   310 0011:0B91   311 0011:0BA6   313 0011:0BBC
   314 0011:0BCF   315 0011:0BE6   316 0011:0C02   318 0011:0C1C
   319 0011:0C2F   320 0011:0C48   321 0011:0C62   323 0011:0C78
   325 0011:0C8E   326 0011:0C9B   327 0011:0CB5   329 0011:0CDD
   336 0011:0CF9   337 0011:0CFE   339 0011:0D27   340 0011:0D4F
   341 0011:0D6D   342 0011:0D8B   343 0011:0D97   344 0011:0DAB
   345 0011:0DB0   347 0011:0DC6   348 0011:0DD3   349 0011:0DED
   350 0011:0DF6   351 0011:0E0D   352 0011:0E25   353 0011:0E52
   354 0011:0E65   356 0011:0E73   357 0011:0E87   358 0011:0E9A
   359 0011:0EA4   360 0011:0EA7   362 0011:0EB5   363 0011:0EC6
   364 0011:0EDA   365 0011:0EE4   366 0011:0EE7   368 0011:0EF7
   369 0011:0F08   370 0011:0F19   371 0011:0F2E   372 0011:0F46
   373 0011:0F5E   374 0011:0F77   375 0011:0F84   378 0011:0F86
   379 0011:0F9A   380 0011:0FAE   382 0011:0FB8   385 0011:0FD5
   386 0011:1007   389 0011:100D   390 0011:1027   391 0011:1033
   392 0011:104C   393 0011:1058   394 0011:1062   395 0011:1063
   402 0011:1067   403 0011:106B   404 0011:1083   407 0011:10A6
   408 0011:10AE   409 0011:10D2   411 0011:10F8   412 0011:1105
   414 0011:110F   415 0011:1120   416 0011:1137   418 0011:1148
   419 0011:114A   420 0011:1155   422 0011:116B   425 0011:116F
   426 0011:1172   427 0011:1185   428 0011:118E   429 0011:11B8
   430 0011:11C1   431 0011:11FA   438 0011:11FE   439 0011:1202
   441 0011:1218   442 0011:1223   443 0011:1229   445 0011:1250
   447 0011:1289

Line numbers for LabelSel(LABELSEL.PAS) segment LabelSel

    52 0011:1359    53 0011:136A    54 0011:137D    55 0011:1389
    56 0011:1395    57 0011:13A1    58 0011:13AA    59 0011:13B3
    60 0011:13BF    61 0011:13CB    62 0011:13D7    65 0011:13EE
    66 0011:13F2    67 0011:13FE    68 0011:142F    69 0011:1448
    70 0011:145D    71 0011:1472    72 0011:148C    73 0011:14A6
    74 0011:14B2    75 0011:14BE

Line numbers for SortHdr(SORTHDR.PAS) segment SortHdr

    49 0011:1604    50 0011:1607    51 0011:161E    52 0011:1638
    55 0011:163A    57 0011:163D    58 0011:164D    61 0011:1651
    63 0011:1654    64 0011:1664    70 0011:1668    71 0011:166C
    73 0011:1676    78 0011:167A    79 0011:167E    80 0011:16A6
    82 0011:16B0    83 0011:16C1    84 0011:16C9    86 0011:16DA
    89 0011:16DE    90 0011:16EF    91 0011:1702    93 0011:170E
    96 0011:1725    98 0011:1728    99 0011:1735   107 0011:1744
   108 0011:1747   109 0011:1752   111 0011:1754   112 0011:1757
   113 0011:1764

Line numbers for PathCmbo(PATHCMBO.PAS) segment PathCmbo

    94 0011:1D0C    95 0011:1D10    98 0011:1D1D   100 0011:1D2F
   101 0011:1D41   102 0011:1D4A   104 0011:1D4C   105 0011:1D55
   106 0011:1D65   109 0011:1D69   110 0011:1D6D   115 0011:1D7A
   116 0011:1D8B   117 0011:1D96   119 0011:1DB0   122 0011:1DB4
   125 0011:1DB8   127 0011:1DC1   128 0011:1DD4   130 0011:1DE3
   133 0011:1DE7   134 0011:1DF8   135 0011:1E0B   136 0011:1E14
   137 0011:1E1B   140 0011:1E32   141 0011:1E35   142 0011:1E42
   147 0011:1E51   148 0011:1E55   149 0011:1E73   150 0011:1EAD
   155 0011:1EB3   156 0011:1EB7   157 0011:1EDB   158 0011:1F27
   163 0011:1F2E   164 0011:1F49   165 0011:1F4E   166 0011:1F6B
   167 0011:1F83   173 0011:1F8E   174 0011:1F92   175 0011:1F9C
   176 0011:1FB1   178 0011:1FBC   179 0011:1FC5   181 0011:1FC8
   182 0011:1FD9   183 0011:1FEA   185 0011:1FF3   186 0011:1FFF
   187 0011:2006   189 0011:200C   190 0011:204A   191 0011:2066
   192 0011:2069   193 0011:206B   194 0011:207C   195 0011:207E
   196 0011:208B   204 0011:208F   205 0011:2093   207 0011:20A1
   208 0011:20AB   209 0011:20B4   211 0011:20B6   212 0011:20DB
   213 0011:20E5   218 0011:20F5   219 0011:20F9   220 0011:2102
   221 0011:2110   222 0011:212A   223 0011:2133   224 0011:2145
   225 0011:218E   228 0011:219B   229 0011:219F   230 0011:21F0
   231 0011:2208

Line numbers for NetDlgs(NETDLGS.PAS) segment NetDlgs

   102 0011:2550   103 0011:2554   104 0011:2559   105 0011:2574
   107 0011:257C   108 0011:2584   113 0011:2589   114 0011:259A
   115 0011:25AD   116 0011:25BA   119 0011:25D1   120 0011:25D4
   121 0011:25E4   122 0011:25F1   125 0011:2600   126 0011:2604
   127 0011:2611   129 0011:261A   130 0011:263D   133 0011:2641
   134 0011:265C   135 0011:2669   136 0011:2676   137 0011:268E
   138 0011:26A1   143 0011:270D   144 0011:2711   145 0011:2715
   146 0011:271F   147 0011:272D   148 0011:2737   151 0011:2760
   153 0011:278A   154 0011:2793   155 0011:27AF   157 0011:27B6
   158 0011:27D2   163 0011:2841   164 0011:2845   165 0011:2849
   166 0011:2853   167 0011:2861   168 0011:286B   171 0011:2894
   173 0011:28BE   174 0011:28C7   175 0011:28E3   177 0011:28EA
   178 0011:2906   183 0011:2975   184 0011:2979   185 0011:297D
   186 0011:2987   187 0011:2995   188 0011:299F   190 0011:29BD
   191 0011:29DC   192 0011:29E5   193 0011:2A01   195 0011:2A08
   196 0011:2A24   201 0011:2A93   202 0011:2A97   203 0011:2A9B
   204 0011:2AA5   205 0011:2AB3   206 0011:2ABD   208 0011:2ADB
   209 0011:2AFA   210 0011:2B03   211 0011:2B1F   213 0011:2B26
   214 0011:2B42   222 0011:2B49   223 0011:2B64   224 0011:2B68
   226 0011:2B78   227 0011:2BA2   229 0011:2BC3   237 0011:2BCA
   238 0011:2BCD   239 0011:2BD3   241 0011:2BDA   242 0011:2BEF
   243 0011:2C04   244 0011:2C19   245 0011:2C2E   247 0011:2C43

Line numbers for DynaMenu(DYNAMENU.PAS) segment DynaMenu

    50 0011:2CD2    51 0011:2CD6    52 0011:2CFE    53 0011:2D0D
    54 0011:2D21    55 0011:2D2D    58 0011:2D39    59 0011:2D3C
    60 0011:2D53    65 0011:2D57    66 0011:2D5B    67 0011:2D60
    68 0011:2D65    70 0011:2D8F    72 0011:2DAE    73 0011:2DDD
    75 0011:2DE0    76 0011:2DE3    77 0011:2DE5    92 0011:2DE9
    93 0011:2DED    94 0011:2DF5    96 0011:2E12    98 0011:2E3B
    99 0011:2E4E   101 0011:2E50   102 0011:2E58   106 0011:2E62
   107 0011:2E66   108 0011:2E6E   110 0011:2E92   112 0011:2EB2
   113 0011:2ECF   115 0011:2ED9   117 0011:2F02   118 0011:2F19
   120 0011:2F1B   121 0011:2F26

Line numbers for StylSped(STYLSPED.PAS) segment StylSped

    63 0011:30E6    64 0011:30E9    66 0011:30F6    67 0011:30FE
    69 0011:3107    77 0011:3111    78 0011:3115    79 0011:311F
    80 0011:3127    81 0011:312E    82 0011:3139    83 0011:3149
    84 0011:315B    87 0011:31B2    90 0011:31B5    91 0011:31C7
    94 0011:3213    95 0011:3225    98 0011:3273    99 0011:328C
   100 0011:32A6   101 0011:32A9   102 0011:32B0   104 0011:32BE
   105 0011:32CD   106 0011:32EA   107 0011:3302   110 0011:331E
   111 0011:3350   114 0011:339C   115 0011:33CE   120 0011:3425
   121 0011:344D   122 0011:345B   123 0011:3470   124 0011:347D
   125 0011:348F   126 0011:34A3   127 0011:34BC   128 0011:34CE
   129 0011:34E4   130 0011:34FF   131 0011:350B   132 0011:3515
   135 0011:3516   138 0011:351A   139 0011:351D   140 0011:352D
   141 0011:3538   142 0011:3554   143 0011:3564   146 0011:3568
   147 0011:356B   148 0011:357B   150 0011:3586   151 0011:358C
   153 0011:3595   156 0011:3599   157 0011:359C   158 0011:35AC
   160 0011:35B7   161 0011:35BD   163 0011:35C6

Line numbers for DropServ(DROPSERV.PAS) segment DropServ

   141 0011:3837   142 0011:383B   143 0011:3846   144 0011:3861
   147 0011:3878   148 0011:388D   149 0011:389A   150 0011:38AF
   151 0011:38CB   153 0011:38D8   154 0011:38DD   155 0011:38E2
   157 0011:38FE   158 0011:3924   159 0011:3927   161 0011:3929
   162 0011:393B   163 0011:395D   165 0011:396B   166 0011:3974
   167 0011:3979   168 0011:3987   172 0011:39B1   173 0011:39C0
   175 0011:39D6   176 0011:3A05   177 0011:3A2B   178 0011:3A33
   180 0011:3A3B   181 0011:3A4D   182 0011:3A64   185 0011:3A68
   186 0011:3A6C   189 0011:3AA7   194 0011:3AAE   195 0011:3AB2
   196 0011:3ABC   197 0011:3AC4   198 0011:3AD6   200 0011:3AEB
   201 0011:3AF0   202 0011:3AFE   203 0011:3B00   205 0011:3B0A
   208 0011:3B36   209 0011:3B3E   210 0011:3B4C   213 0011:3B79
   214 0011:3B83   217 0011:3B8A   218 0011:3B8D   220 0011:3B97
   222 0011:3BA5   223 0011:3BAD   224 0011:3BCB   225 0011:3BCD
   227 0011:3BE3   228 0011:3BEB

Line numbers for MultiGrd(MULTIGRD.PAS) segment MultiGrd

   196 0012:0824   197 0012:0835   198 0012:0848   199 0012:0854
   200 0012:0860   201 0012:0869   202 0012:0872   203 0012:0885
   204 0012:088F   205 0012:0895   206 0012:089B   207 0012:08A9
   208 0012:08D5   209 0012:08DC   212 0012:08F3   213 0012:08F6
   214 0012:0922   215 0012:092F   218 0012:0951   219 0012:0955
   220 0012:099E   221 0012:09BA   224 0012:09D4   225 0012:09D7
   227 0012:0A14   229 0012:0A2C   230 0012:0A3F   232 0012:0A45
   233 0012:0A4D   235 0012:0A5D   236 0012:0A63   238 0012:0A69
   239 0012:0A6B   240 0012:0A73   241 0012:0AB1   243 0012:0AD9
   244 0012:0ADB   245 0012:0AF7   254 0012:0AFB   255 0012:0AFE
   256 0012:0B06   259 0012:0B0A   260 0012:0B0D   261 0012:0B1D
   264 0012:0B21   265 0012:0B25   266 0012:0B51   269 0012:0B58
   270 0012:0B5B   272 0012:0B89   273 0012:0B93   274 0012:0BB5
   275 0012:0BDB   277 0012:0BE5   297 0012:0BE9   298 0012:0BED
   299 0012:0C3C   302 0012:0C40   303 0012:0C43   305 0012:0C5A
   306 0012:0C6D   308 0012:0C7E   315 0012:0C88   316 0012:0C8C
   317 0012:0CBA   318 0012:0CCC   321 0012:0CDE   322 0012:0CE8
   323 0012:0CF5   324 0012:0D2C   325 0012:0D3A   326 0012:0D48
   327 0012:0D5F   328 0012:0D6F   329 0012:0D7F   330 0012:0D96
   331 0012:0DA3   332 0012:0DAF   333 0012:0DBD   334 0012:0DC7
   335 0012:0DD3   336 0012:0DD4   341 0012:0DD8   343 0012:0DDC
   344 0012:0DF0   345 0012:0E00   346 0012:0E1A   350 0012:0E46
   352 0012:0E63   353 0012:0E82   354 0012:0E92   355 0012:0EAC
   357 0012:0ED8   358 0012:0EEE   361 0012:0EF2   362 0012:0EF5
   363 0012:0F0B   364 0012:0F2F   365 0012:0F5E   368 0012:0F62
   369 0012:0F65   370 0012:0F76   371 0012:0FB4   372 0012:0FDC
   380 0012:0FE0   381 0012:0FE3   382 0012:1011   383 0012:101B
   384 0012:1021   385 0012:102A   390 0012:102E   391 0012:1032
   393 0012:103D   394 0012:1041   396 0012:1044   397 0012:1065
   398 0012:1078   399 0012:1087   400 0012:10A7   402 0012:10B0
   405 0012:10D1   406 0012:10DA   407 0012:10F9   408 0012:1103
   409 0012:1106   412 0012:1130   413 0012:1139   414 0012:116C
   415 0012:1177   416 0012:117D   418 0012:1185   419 0012:118B
   420 0012:1191   422 0012:1197   423 0012:11B2   424 0012:11DE
   428 0012:11E1   429 0012:11EB   431 0012:11F3   434 0012:1203
   435 0012:120C   436 0012:123B   438 0012:124A   442 0012:124C
   443 0012:1278   444 0012:1284   447 0012:1293   449 0012:12B7
   454 0012:12BE   455 0012:12C2   456 0012:12E5   458 0012:1327
   459 0012:1334   460 0012:134A   462 0012:1356   468 0012:135A
   469 0012:1372   470 0012:1380   471 0012:13A1   473 0012:13AF
   475 0012:13C2   476 0012:13DB   477 0012:13ED   478 0012:1407
   481 0012:1409   482 0012:141B   484 0012:142D   486 0012:1447
   487 0012:1460   488 0012:1464   489 0012:1468   490 0012:147E
   491 0012:14A2   496 0012:14A6   497 0012:14AA   498 0012:14DC
   499 0012:1508   504 0012:150C   505 0012:1510   506 0012:1542
   507 0012:156E   510 0012:1572   511 0012:1576   512 0012:15AF
   515 0012:15B6   516 0012:15B9   517 0012:15DA   520 0012:15DE
   521 0012:15E2   522 0012:15F3   525 0012:15FA   526 0012:15FD
   527 0012:1618   528 0012:162B   531 0012:162F   532 0012:1633
   534 0012:1640   535 0012:1648   536 0012:166B   537 0012:1671
   538 0012:1692   540 0012:169D

Line numbers for BarGauge(BARGAUGE.PAS) segment BarGauge

   101 0012:19B4   102 0012:19C5   103 0012:19D8   104 0012:19E6
   105 0012:19F2   106 0012:1A00   107 0012:1A0C   108 0012:1A1A
   109 0012:1A28   110 0012:1A31   111 0012:1A3D   114 0012:1A58
   115 0012:1A5C   116 0012:1A99   117 0012:1AEB   120 0012:1AF2
   121 0012:1AF5   123 0012:1B0C   124 0012:1B1F   126 0012:1B28
   129 0012:1B2C   130 0012:1B2F   132 0012:1B46   133 0012:1B59
   135 0012:1B62   140 0012:1B66   141 0012:1B6A   143 0012:1BB3
   144 0012:1BC0   145 0012:1BD3   147 0012:1BEB   150 0012:1BEF
   151 0012:1BF2   153 0012:1BFF   154 0012:1C07   156 0012:1C10
   159 0012:1C14   160 0012:1C17   161 0012:1C35   164 0012:1C39
   165 0012:1C3C   167 0012:1C53   168 0012:1C66   170 0012:1C6F
   173 0012:1C73   174 0012:1C76   176 0012:1C8D   177 0012:1CA0
   179 0012:1CA9   273 0012:1CAD   274 0012:1CB1   275 0012:1CCE
   277 0012:1CEF   278 0012:1CFD   279 0012:1D13   280 0012:1D1C
   282 0012:1D2A   283 0012:1D45   284 0012:1D50   286 0012:1D6A
   287 0012:1D79   288 0012:1D87   290 0012:1D91   292 0012:1DAD
   293 0012:1DBC   294 0012:1DCA   302 0012:1DD2   303 0012:1DDF
   304 0012:1DF7   306 0012:1E06   309 0012:1E0E   310 0012:1E12
   311 0012:1E67   316 0012:1E6E   317 0012:1E72   319 0012:1EBB
   320 0012:1EC8   321 0012:1EDB   323 0012:1EF3   328 0012:1EF7
   329 0012:1EFA   330 0012:1F23   332 0012:1F27   333 0012:1F2A
   334 0012:1F40   335 0012:1F49   336 0012:1F5F

Line numbers for Resource(RESOURCE.PAS) segment Resource

   149 0012:20A9   150 0012:20BA   151 0012:20C7   152 0012:20E2
   153 0012:20FD   154 0012:2118   155 0012:2133   156 0012:2140
   159 0012:2157   160 0012:215A   161 0012:2168   162 0012:2176
   163 0012:2184   164 0012:2192   165 0012:219F   168 0012:21AE
   169 0012:21B1   170 0012:21C8   171 0012:21DC   174 0012:21E6
   175 0012:2201   176 0012:2212   178 0012:2238   179 0012:2257
   180 0012:22A6   183 0012:22BC   190 0012:22CD   191 0012:22D1
   192 0012:22E5   194 0012:22EE   195 0012:2303   198 0012:230E
   199 0012:233A   201 0012:2340   202 0012:236C   205 0012:2386
   206 0012:238A   207 0012:238F   208 0012:23EF   209 0012:240C
   212 0012:2412   213 0012:2428   214 0012:2435   215 0012:2449
   216 0012:2462   217 0012:2477   221 0012:2479   222 0012:2486
   223 0012:24A1   225 0012:24B8   229 0012:24BA   230 0012:24D3
   233 0012:24E8   236 0012:24EA   237 0012:2505   239 0012:2512
   242 0012:251C   243 0012:2520   244 0012:2546   245 0012:254F
   246 0012:257F   247 0012:2594   254 0012:2598   255 0012:259C
   256 0012:25BB   269 0012:25C5   270 0012:25D6   271 0012:25E3
   272 0012:25F4   273 0012:2609   274 0012:2613   279 0012:262A
   281 0012:262E   283 0012:263B   284 0012:2665   285 0012:2673
   286 0012:269D   287 0012:26BE   288 0012:26DD   289 0012:26DF
   290 0012:26FE   293 0012:2702   294 0012:2706   295 0012:271C
   297 0012:2726   298 0012:275B   299 0012:2775   301 0012:278A
   320 0012:2974   321 0012:2977   322 0012:2990   323 0012:29A9
   324 0012:29C2   325 0012:29DB   326 0012:29F4   327 0012:2A0D
   328 0012:2A1F   329 0012:2A31   330 0012:2A43   331 0012:2A55
   332 0012:2A67   333 0012:2A79   334 0012:2A8B   335 0012:2A9D
   336 0012:2AAF   337 0012:2AC1   338 0012:2AD3   339 0012:2AE5
   340 0012:2AF7   342 0012:2B09   343 0012:2B1B   344 0012:2B2D
   346 0012:2B3F   347 0012:2B51   348 0012:2B63   349 0012:2B75
   350 0012:2B87   351 0012:2B99   352 0012:2BAB   353 0012:2BBD
   354 0012:2BCF   362 0012:2C0B   363 0012:2C0F   364 0012:2C25
   368 0012:2C33   369 0012:2C5F   370 0012:2C7B   371 0012:2CA2
   373 0012:2CC6   374 0012:2D1B   375 0012:2D80   377 0012:2D8C
   378 0012:2D98   379 0012:2DAE   381 0012:2DD2   382 0012:2E4B
   383 0012:2E61   384 0012:2E6D   385 0012:2E79   386 0012:2E83
   387 0012:2E84   397 0012:2ED1   398 0012:2ED5   399 0012:2EEB
   400 0012:2F01   401 0012:2F1D   403 0012:2F2B   405 0012:2F36
   406 0012:2F48   407 0012:2F4D   409 0012:2F6E   411 0012:2F78
   412 0012:2FB0   413 0012:2FB6   414 0012:2FF4   415 0012:2FFA
   416 0012:3038   418 0012:3041   419 0012:309E   422 0012:30D3
   423 0012:30D6   425 0012:30D9   427 0012:30FD   428 0012:3102
   429 0012:3128   431 0012:31B4   432 0012:322C   433 0012:326C
   434 0012:32B6   435 0012:32C2   436 0012:32CE   437 0012:32D8
   438 0012:32E2   439 0012:32E3   442 0012:32E5   443 0012:32E9
   445 0012:32F3   446 0012:3304   447 0012:3315   448 0012:3330
   449 0012:334B   450 0012:3366   451 0012:3381   452 0012:3391
   453 0012:33A1   454 0012:33BC   455 0012:33D7   456 0012:33F2
   457 0012:340D   459 0012:3428   469 0012:342A   470 0012:342D
   472 0012:3434   473 0012:344E   475 0012:3453   478 0012:3457
   479 0012:345A   481 0012:3461   482 0012:347C   484 0012:3481
   487 0012:3483   488 0012:3486   489 0012:3489   490 0012:348C
   491 0012:348F   492 0012:3492   495 0012:34AA   496 0012:34AD
   497 0012:34C4   498 0012:34E5   499 0012:3506   500 0012:3527
   503 0012:3529   504 0012:352C   505 0012:3537   506 0012:3542
   507 0012:354D   508 0012:3558   510 0012:355A   511 0012:355D
   512 0012:3560   513 0012:356D

Line numbers for Registry(REGISTRY.PAS) segment Registry

   125 0011:3C4C   126 0011:3C5D   127 0011:3C6C   128 0011:3C76
   129 0011:3C7B   132 0011:3C92   133 0011:3C95   134 0011:3C9F
   135 0011:3CAC   138 0011:3CBB   139 0011:3CBE   141 0011:3CCB
   142 0011:3CD8   143 0011:3CE5   145 0011:3CEA   148 0011:3CEE
   149 0011:3CF2   150 0011:3D0F   151 0011:3D20   158 0011:3D2C
   159 0011:3D30   161 0011:3D62   162 0011:3D77   164 0011:3DA9
   166 0011:3DB2   167 0011:3DC5   169 0011:3E00   170 0011:3E0A
   171 0011:3E1B   173 0011:3E32   189 0011:3E39   190 0011:3E3D
   191 0011:3E6A   196 0011:3E71   197 0011:3E75   198 0011:3E7C
   200 0011:3EA8   201 0011:3ECC   237 0011:3ED3   238 0011:3ED7
   239 0011:3EDE   240 0011:3EEA   241 0011:3F1D   242 0011:3F3B
   262 0011:3F5A   263 0011:3F5E   265 0011:3FA7   266 0011:3FDF

Line numbers for Environs(ENVIRONS.PAS) segment Environs

    34 0009:3E53    35 0009:3E57    36 0009:3E69    37 0009:3E6E
    39 0009:3E7E    40 0009:3E9B    41 0009:3EA2    42 0009:3EBF
    44 0009:3ED6    45 0009:3F12    46 0009:3F27    47 0009:3F3D
    49 0009:3F47    50 0009:3F4A    51 0009:3F4D    56 0009:3F51
    57 0009:3F55    58 0009:3F6C    59 0009:3F77    61 0009:3F80
    62 0009:3F9E    63 0009:3FAD    64 0009:3FAF    67 0009:3FB1
    68 0009:3FB4    69 0009:3FBF    71 0009:3FC1    72 0009:3FC4
    73 0009:3FC7    74 0009:3FD4

Line numbers for ObjList(OBJLIST.PAS) segment ObjList

    35 000A:3ED2    36 000A:3ED5    37 000A:3EDF    38 000A:3EEC
    43 000A:3EFB    44 000A:3EFF    45 000A:3F3A    46 000A:3F44
    49 000A:3F48    50 000A:3F4B    51 000A:3F63    52 000A:3F70

Line numbers for SysMenu(SYSMENU.PAS) segment SysMenu

    51 000C:3EA2    52 000C:3EA5    53 000C:3EAF    54 000C:3EE1
    80 000C:3EE5    81 000C:3EE8    82 000C:3F00    85 000C:3F04
    86 000C:3F07    87 000C:3F19    90 000C:3F1D    91 000C:3F20
    92 000C:3F31    95 000C:3F35    96 000C:3F38    97 000C:3F52
   105 000C:3F56   106 000C:3F59   107 000C:3F74

Line numbers for CalForm(CALFORM.PAS) segment CalForm

    56 000E:3FB6    57 000E:3FB9    58 000E:3FCC    61 000E:3FD0
    62 000E:3FD3    63 000E:3FE2    64 000E:3FF5    67 000E:3FF9
    68 000E:3FFC

Line numbers for CalMsgs(CALMSGS.PAS) segment CalMsgs

    69 0001:3FED    70 0001:3FF0    71 0001:3FFD

Line numbers for ExtForm(EXTFORM.PAS) segment ExtForm

    81 0012:3652    82 0012:3656    83 0012:365B    84 0012:3670
    85 0012:367C    90 0012:3686    91 0012:368A    93 0012:3694
    94 0012:36B0    96 0012:36CF    97 0012:36E2    98 0012:36E7
    99 0012:36FC   100 0012:3708   101 0012:3711   102 0012:3716
   103 0012:372B   104 0012:3737   105 0012:374A   108 0012:374E
   109 0012:3752   110 0012:3764   113 0012:3771   115 0012:377C
   116 0012:3790   118 0012:37A4   119 0012:37B3   121 0012:37C2
   124 0012:37C6   125 0012:37C9   126 0012:37DB   127 0012:37EA
   133 0012:37EE   134 0012:37F2   135 0012:380A   136 0012:381E
   137 0012:3823   138 0012:3837   139 0012:3857   140 0012:3876
   141 0012:38A1   142 0012:38AE   143 0012:38BB   144 0012:38D4
   145 0012:38ED   146 0012:38F2   147 0012:3906   150 0012:390A
   151 0012:390D   152 0012:3921   153 0012:392D   154 0012:393B
   155 0012:396B   156 0012:397A   157 0012:39AA   158 0012:39B8
   159 0012:39DE   160 0012:3A02   163 0012:3A06   164 0012:3A09
   165 0012:3A13   166 0012:3A1F   167 0012:3A28   168 0012:3A37
   169 0012:3A46   172 0012:3A4A   173 0012:3A4D   175 0012:3A58
   176 0012:3A6C   177 0012:3A80   178 0012:3A8F   180 0012:3A9E
   181 0012:3AA8   184 0012:3AAC   185 0012:3AAF   186 0012:3ABB
   187 0012:3AC5   192 0012:3AC9   193 0012:3ACD   194 0012:3B0E
   200 0012:3B12   201 0012:3B16   203 0012:3B42   204 0012:3B49
   205 0012:3B50   206 0012:3B57   207 0012:3B5E   208 0012:3B6F
   209 0012:3B80   210 0012:3B91   211 0012:3BA2   212 0012:3BBA
   213 0012:3BC5   216 0012:3BD8   217 0012:3BDB   219 0012:3C20
   222 0012:3C3A   223 0012:3C3E   228 0012:3CCF   231 0012:3CF8
   232 0012:3CFC   234 0012:3D05   235 0012:3D23   236 0012:3D41
   237 0012:3D5F   238 0012:3D7D   240 0012:3D8D   241 0012:3DA7
   244 0012:3DC1

Line numbers for DropClnt(DROPCLNT.PAS) segment DropClnt

    83 0013:0102    84 0013:0113    85 0013:012A    86 0013:0146
    87 0013:0159    88 0013:016A    91 0013:0181    92 0013:0184
    93 0013:0195    94 0013:01A2   101 0013:01B1   102 0013:01B5
   103 0013:01CC   104 0013:01E1   106 0013:01FB   107 0013:020F
   108 0013:023B   109 0013:0245   110 0013:0256   111 0013:025E
   112 0013:027B   115 0013:027F   116 0013:0282   117 0013:028C
   118 0013:02B6   119 0013:02C1   125 0013:02CF   126 0013:02D3
   128 0013:02E1   129 0013:02F3   130 0013:030E   132 0013:032E
   133 0013:033C   134 0013:034A   135 0013:0353   137 0013:036F
   138 0013:0376   139 0013:0378   141 0013:0380   149 0013:0384
   150 0013:0387   151 0013:0392   153 0013:0394   154 0013:0397
   155 0013:03AE   156 0013:03BB

Line numbers for DragDrop(DRAGDROP.PAS) segment DragDrop

    43 0012:3E61    44 0012:3E72    45 0012:3E85    46 0012:3EA0
    47 0012:3EA5    50 0012:3EBC    51 0012:3EBF    52 0012:3ECD
    53 0012:3EDA

Line numbers for Streamer(STREAMER.PAS) segment Streamer

    41 0013:03F3    42 0013:03F6    43 0013:040B    46 0013:040F
    47 0013:0412    48 0013:0427    51 0013:042B    52 0013:042E
    53 0013:0443    54 0013:0464    62 0013:0468    63 0013:046C
    64 0013:0480    67 0013:0487    68 0013:048B    69 0013:049F
    72 0013:04A6    73 0013:04A9    74 0013:04BD    75 0013:04DD

Line numbers for Drives(DRIVES.PAS) segment Drives

    93 0013:04E1    95 0013:04E5    96 0013:04F7    99 0013:04FE
   101 0013:0502   102 0013:050F   107 0013:0524   108 0013:0528
   109 0013:0541   111 0013:054A   112 0013:0560   113 0013:0579
   114 0013:0587   115 0013:0595   116 0013:05A3   117 0013:05B1
   118 0013:05BF   119 0013:05CD   121 0013:05D9   122 0013:05FA
   123 0013:0603   128 0013:0605   129 0013:0609   130 0013:060D
   131 0013:0616   133 0013:0645   134 0013:0649   135 0013:064B
   136 0013:0651   141 0013:0656   142 0013:065A   143 0013:0666
   144 0013:066E   145 0013:0679   146 0013:0684   147 0013:069B
   148 0013:06A1   149 0013:06B8   151 0013:06BC   154 0013:06C3
   155 0013:06C7   156 0013:06D3   157 0013:06EE   158 0013:06F2
   161 0013:06F9   162 0013:06FD   163 0013:0709   164 0013:0724
   165 0013:0728   168 0013:072F   169 0013:0733   171 0013:0768
   174 0013:076F   175 0013:0772   176 0013:0775   177 0013:0777
   178 0013:0779   179 0013:077B   180 0013:077D   181 0013:0780
   182 0013:0783   183 0013:0785   185 0013:0787   190 0013:078B
   191 0013:078F   192 0013:0793   193 0013:0794   194 0013:0796
   195 0013:0798   196 0013:079C   197 0013:079E   198 0013:07A1
   199 0013:07A4   200 0013:07A6   201 0013:07A8   202 0013:07AB
   203 0013:07AD   204 0013:07AF   205 0013:07B4   206 0013:07B6
   207 0013:07BB   208 0013:07BD   209 0013:07C1   210 0013:07C5
   211 0013:07C6   212 0013:07C9   222 0013:07E5   223 0013:07E9
   224 0013:07EF   225 0013:07F4   227 0013:0810   228 0013:082F
   230 0013:089C   231 0013:0907   232 0013:094F   234 0013:0951
   235 0013:0983   284 0013:0A05   286 0013:0A09   287 0013:0A0D
   288 0013:0A10   289 0013:0A13   290 0013:0A15   291 0013:0A17
   292 0013:0A1A   293 0013:0A1C   295 0013:0A1E   298 0013:0A22
   299 0013:0A28   300 0013:0A44   305 0013:0A48   306 0013:0A4C
   307 0013:0A74   308 0013:0A7B   313 0013:0A87   314 0013:0A8B
   315 0013:0A92   317 0013:0ABB   318 0013:0ACC   319 0013:0AED
   321 0013:0AF5   322 0013:0AFF   329 0013:0B21   331 0013:0B25
   332 0013:0B2A   333 0013:0B45   336 0013:0B53   337 0013:0B57
   338 0013:0B5B   339 0013:0B67   340 0013:0B78   343 0013:0B89
   344 0013:0B8A   345 0013:0B8C   346 0013:0B8E   347 0013:0B91
   348 0013:0B94   349 0013:0B99   350 0013:0B9A   351 0013:0B9C
   353 0013:0B9E   356 0013:0BA3   357 0013:0BA9   358 0013:0BC5
   366 0013:0C0A   367 0013:0C2A   368 0013:0C30   369 0013:0C39
   371 0013:0C3C   372 0013:0C44   373 0013:0C5D   374 0013:0C66
   375 0013:0C75   376 0013:0C83   377 0013:0C95   378 0013:0CA3
   380 0013:0CAC   381 0013:0CB0   382 0013:0CB5   383 0013:0CC5
   384 0013:0CDA   386 0013:0CEF   389 0013:0CFD   390 0013:0D08
   391 0013:0D0D   393 0013:0D12   394 0013:0D1C   395 0013:0D22
   397 0013:0D3E   400 0013:0D4C   401 0013:0D57   402 0013:0D5C
   404 0013:0D61   405 0013:0D6B   406 0013:0D71   407 0013:0D8D
   408 0013:0D99   409 0013:0DA7   410 0013:0DA8   438 0013:0DB2
   439 0013:0DB6   440 0013:0DC0   441 0013:0DC3   442 0013:0DD2
   443 0013:0DE1   445 0013:0DEF   446 0013:0E01   448 0013:0E14
   449 0013:0E26   453 0013:0E39   454 0013:0E47   455 0013:0E55
   456 0013:0E63   457 0013:0E6A   458 0013:0E72   459 0013:0E83
   460 0013:0E8C   461 0013:0E93   462 0013:0E98   463 0013:0E9E
   464 0013:0EA9   465 0013:0EB4   466 0013:0EBE   467 0013:0ED3
   469 0013:0EE9   470 0013:0EF5   471 0013:0F03   472 0013:0F04
   474 0013:0F0E   475 0013:0F11   476 0013:0F16

Line numbers for Profile(PROFILE.PAS) segment Profile

    62 0015:002B    63 0015:002F    66 0015:007E    75 0015:0088
    76 0015:008C    77 0015:00A7    78 0015:00B5    79 0015:00C5
    81 0015:00D9    82 0015:00F7    83 0015:0105    84 0015:012D
    85 0015:012F    86 0015:013B    87 0015:014B    88 0015:014C
    93 0015:0150    94 0015:0154    95 0015:0173    96 0015:01CA
   101 0015:01D7   102 0015:01DB   103 0015:020B   104 0015:025F
   107 0015:0263   108 0015:0266   109 0015:0272   110 0015:0287
   115 0015:0293   116 0015:0297   117 0015:02BA   118 0015:02D9
   119 0015:032B   122 0015:032F   123 0015:0332   124 0015:0341
   125 0015:0356   129 0015:0364   130 0015:0368   131 0015:0376
   133 0015:03AC   134 0015:03B5   135 0015:03C1   136 0015:03C6
   139 0015:03D0   140 0015:03D4   141 0015:03F9   147 0015:0444
   148 0015:0448   149 0015:0454   151 0015:045D   152 0015:0491
   153 0015:04BD   154 0015:04E8   155 0015:04EC   156 0015:0522
   158 0015:0528   159 0015:053F   160 0015:0556   161 0015:056D
   163 0015:0584   165 0015:0592   170 0015:05E6   171 0015:05EA
   172 0015:05F3   173 0015:0617   174 0015:0638   175 0015:0657
   176 0015:065B   177 0015:067A   178 0015:0699   179 0015:06B8
   180 0015:06D7   182 0015:06F0   187 0015:0709   188 0015:070D
   189 0015:0719   190 0015:074C   191 0015:0755   193 0015:0768
   194 0015:07A4   195 0015:07BA   196 0015:07C2   201 0015:07E1
   202 0015:07E5   204 0015:07EE   205 0015:0816   206 0015:083A
   208 0015:0887

Line numbers for Files(FILES.PAS) segment Files

   155 0015:0A71   156 0015:0A75   157 0015:0A8A   159 0015:0A90
   160 0015:0AA1   161 0015:0AAE   162 0015:0AB0   163 0015:0ABA
   168 0015:0ABE   169 0015:0AC2   172 0015:0AFD   173 0015:0B07
   179 0015:0B21   180 0015:0B25   182 0015:0B39   183 0015:0B3F
   185 0015:0B8B   186 0015:0B97   187 0015:0BA1   193 0015:0BBB
   194 0015:0BBF   196 0015:0BD3   197 0015:0BD9   199 0015:0C25
   200 0015:0C31   201 0015:0C3B   206 0015:0C77   207 0015:0C7B
   208 0015:0C88   210 0015:0C91   211 0015:0CB9   212 0015:0CBC
   213 0015:0CF5   214 0015:0D2E   217 0015:0D4B   222 0015:0D97
   223 0015:0D9B   224 0015:0DAB   226 0015:0DB4   227 0015:0DDC
   228 0015:0DDF   229 0015:0E19   230 0015:0E52   231 0015:0E8B
   234 0015:0EA8   244 0015:0EEA   245 0015:0EEE   246 0015:0EFB
   247 0015:0F0A   248 0015:0F18   249 0015:0F1C   250 0015:0F2A
   251 0015:0F37   252 0015:0F45   253 0015:0F54   255 0015:0F62
   256 0015:0F7C   257 0015:0FA7   258 0015:0FEC   259 0015:0FFA
   260 0015:1005   261 0015:101C   262 0015:1020   263 0015:102C
   264 0015:103B   265 0015:103C   266 0015:1048   268 0015:104E
   269 0015:105C   271 0015:1069   272 0015:1071   273 0015:1081
   274 0015:1082   275 0015:108E   276 0015:1096   277 0015:1097
   299 0015:109B   300 0015:109F   301 0015:10B1   304 0015:1106
   310 0015:1114   311 0015:1118   312 0015:1120   313 0015:1126
   314 0015:1130   315 0015:1159   317 0015:1162   318 0015:1173
   320 0015:117C   322 0015:1182   323 0015:1186   325 0015:11C0
   326 0015:11CA   327 0015:11D2   330 0015:11E2   331 0015:11E4
   332 0015:11EA   333 0015:11F7   334 0015:11FA   335 0015:1204
   349 0015:120A   350 0015:120E   351 0015:122C   353 0015:1232
   354 0015:126D   360 0015:1274   361 0015:1278   362 0015:127D
   363 0015:128C   364 0015:1290   366 0015:12A3   368 0015:12AE
   369 0015:12D3   370 0015:12D7   372 0015:12D9   373 0015:1311
   374 0015:1314   375 0015:1317   376 0015:1335   379 0015:133C
   380 0015:1340   381 0015:1343   382 0015:134F   383 0015:135B
   385 0015:1367   387 0015:136C   390 0015:1375   391 0015:1379
   392 0015:138A   393 0015:13B5   398 0015:13B9   399 0015:13BD
   400 0015:13C4   401 0015:13DF   402 0015:140E   403 0015:1439
   408 0015:1441   409 0015:1445   410 0015:1449   411 0015:145D
   412 0015:1462   413 0015:1467   415 0015:148D   416 0015:1495
   417 0015:1499   418 0015:14AD   419 0015:14B0   420 0015:14B3
   421 0015:14B5   422 0015:14B9   423 0015:14D6   424 0015:14D9
   427 0015:14DB   428 0015:14FB   429 0015:14FE   432 0015:1501
   433 0015:1504   434 0015:152F   443 0015:1543   444 0015:1547
   445 0015:1559   447 0015:155F   448 0015:1570   449 0015:1574
   452 0015:1576   453 0015:1599   455 0015:15BD   456 0015:15E3
   457 0015:15E8   459 0015:1600   460 0015:1603   461 0015:1620
   462 0015:16B0   463 0015:16BA   464 0015:16BD   465 0015:16D3
   468 0015:16D7   469 0015:16DB   470 0015:1712   475 0015:171B
   476 0015:171F   477 0015:1730   479 0015:1741   480 0015:1768
   482 0015:1778   484 0015:17D3   494 0015:17E4   495 0015:17E8
   496 0015:17F9   497 0015:1815   498 0015:1832   499 0015:1846
   500 0015:1856   501 0015:1873   503 0015:1879   504 0015:1899
   505 0015:18BA   506 0015:18C0   508 0015:18E6   510 0015:18F7
   511 0015:18FB   512 0015:190C   513 0015:191A   514 0015:1924
   515 0015:1960   516 0015:1963   522 0015:196E   523 0015:1972
   525 0015:198D   527 0015:1997   528 0015:199B   529 0015:19BC
   530 0015:19C2   531 0015:19ED   532 0015:19FF   533 0015:1A40
   534 0015:1A47   536 0015:1A73   541 0015:1A7C   542 0015:1A9C
   543 0015:1AAC   544 0015:1AB8   545 0015:1ADE   546 0015:1AF9
   547 0015:1B11   550 0015:1B18   551 0015:1B38   552 0015:1B48
   553 0015:1B5E   554 0015:1B73   555 0015:1B82   557 0015:1B86
   558 0015:1B8A   559 0015:1BAE   560 0015:1BBD   561 0015:1BD9

Line numbers for PicBtn(PICBTN.PAS) segment PicBtn

    40 0013:3851    41 0013:3854    42 0013:385E    44 0013:387A
    45 0013:3888    46 0013:3894    47 0013:38A7    49 0013:38A9
    50 0013:38B5    51 0013:38C1    54 0013:38C5    55 0013:38C8
    56 0013:38CE    57 0013:38E3

Line numbers for MiscUtil(MISCUTIL.PAS) segment MiscUtil

   231 0015:1BDB   232 0015:1BDE   233 0015:1BE1   234 0015:1BE4
   235 0015:1BE6   237 0015:1BE9   240 0015:1BED   241 0015:1BF0
   242 0015:1BF3   243 0015:1BF6   244 0015:1BF8   246 0015:1BFB
   285 0015:1BFF   286 0015:1C17   287 0015:1C31   290 0015:1C35
   291 0015:1C4D   292 0015:1C67   297 0015:1C6B   298 0015:1C6F
   299 0015:1C8A   300 0015:1C98   301 0015:1CA8   308 0015:1CB3
   309 0015:1CB7   310 0015:1CC0   311 0015:1CCD   312 0015:1CE0
   313 0015:1CF8   318 0015:1CFC   319 0015:1D00   320 0015:1D1E
   323 0015:1D25   324 0015:1D28   325 0015:1D2B   326 0015:1D2E
   327 0015:1D31   328 0015:1D34   329 0015:1D36   330 0015:1D38
   331 0015:1D39   332 0015:1D3B   333 0015:1D3D   334 0015:1D3F
   335 0015:1D42   336 0015:1D45   337 0015:1D49   338 0015:1D4D
   339 0015:1D51   342 0015:1D5F   343 0015:1D63   344 0015:1D71
   345 0015:1D82   346 0015:1D8B   348 0015:1D9B   351 0015:1DA5
   352 0015:1DA9   353 0015:1DBE   354 0015:1DDE   355 0015:1DE3
   375 0015:1DEA   376 0015:1DEE   377 0015:1E03   378 0015:1E2C
   390 0015:1E30   391 0015:1E34   392 0015:1E49   393 0015:1E72
   396 0015:1E76   397 0015:1E7A   398 0015:1E90   401 0015:1E97
   402 0015:1E9B   403 0015:1EAD   418 0015:1EB7   419 0015:1EBB
   420 0015:1EC5   421 0015:1ED0   424 0015:1ED2   425 0015:1EE1
   426 0015:1EE9   427 0015:1EEE   430 0015:1EFC   431 0015:1EFF
   432 0015:1F02   433 0015:1F20   435 0015:1F36   438 0015:1F38
   439 0015:1F3B   440 0015:1F40   441 0015:1F52   444 0015:1F54
   445 0015:1F57   446 0015:1F69   452 0015:1F6B   453 0015:1F6F
   454 0015:1F73   455 0015:1F8E   457 0015:1FAC   458 0015:1FCD
   460 0015:1FD3   461 0015:1FD7   462 0015:1FF7   463 0015:1FF9
   467 0015:1FFF   468 0015:2003   469 0015:2022   470 0015:2032
   471 0015:2047   473 0015:2058   475 0015:207C   476 0015:2080
   477 0015:209C   479 0015:209E   482 0015:20A5   483 0015:20A9
   485 0015:20B2   486 0015:20C7   488 0015:211A   495 0015:211E
   496 0015:2122   497 0015:2140   498 0015:215A   502 0015:2161
   503 0015:2165   504 0015:2188   508 0015:218F   509 0015:2193
   510 0015:21BE   518 0015:21C5   519 0015:21C9   520 0015:21E4
   523 0015:21E8   524 0015:21EC   525 0015:220F   528 0015:2219
   529 0015:221D   530 0015:2222   531 0015:2240   532 0015:224E
   533 0015:2258   534 0015:2264   535 0015:226E   536 0015:226F
   540 0015:2276   542 0015:227A   544 0015:2283   545 0015:228F
   546 0015:229E   547 0015:22BD   549 0015:22FA   550 0015:2306
   565 0015:2316   566 0015:231A   567 0015:2341   568 0015:2363
   569 0015:2371   571 0015:237A   572 0015:2385   573 0015:2393
   574 0015:23AB   575 0015:23C3   579 0015:23CD   580 0015:23D7
   582 0015:23E1   583 0015:23FB   584 0015:2416   585 0015:2431
   586 0015:244D   588 0015:2457   589 0015:2470   590 0015:2493
   591 0015:24B6   592 0015:24BC   593 0015:24E2   594 0015:2508
   595 0015:252E   596 0015:2547   597 0015:255B   598 0015:256D
   603 0015:256F   604 0015:2586   605 0015:25A6   608 0015:25B1
   609 0015:25BD   610 0015:25C7   611 0015:25C8   618 0015:25CC
   619 0015:25D0   621 0015:25D9   622 0015:25F0   624 0015:260D
   626 0015:2616   627 0015:262D   628 0015:2642   629 0015:2659
   631 0015:266F   633 0015:2684   634 0015:26B2   636 0015:26D1
   638 0015:26E6   641 0015:2714   642 0015:2733   645 0015:276A
   646 0015:2786   648 0015:27A4   650 0015:27D3   655 0015:27D7
   656 0015:27DB   657 0015:27EE   658 0015:27F7   659 0015:2816
   660 0015:2835   661 0015:288B   666 0015:288F   667 0015:2893
   668 0015:28A9   669 0015:28B7   670 0015:28C5   672 0015:28D9
   673 0015:28EA   674 0015:291C   675 0015:2926   676 0015:2930
   677 0015:294A   679 0015:296C   685 0015:2980   689 0015:2984
   690 0015:2996   691 0015:29AC   692 0015:29C0   693 0015:29CE
   694 0015:29E9   695 0015:2A05   698 0015:2A17   699 0015:2A3A
   700 0015:2A46   701 0015:2A63   702 0015:2A68   703 0015:2A80
   704 0015:2A8C   705 0015:2A96   706 0015:2A97   732 0015:2A9B
   733 0015:2A9F   734 0015:2AAA   737 0015:2ABC   738 0015:2ACD
   743 0015:2AD1   744 0015:2AD5   745 0015:2ADF   746 0015:2AE9
   747 0015:2AF5   760 0015:2AFD   761 0015:2B01   762 0015:2B13
   763 0015:2B24   764 0015:2B2F   767 0015:2B33   768 0015:2B36
   769 0015:2B54   790 0015:2B58   794 0015:2B5C   795 0015:2B61
   796 0015:2B6E   797 0015:2B7A   802 0015:2B84   806 0015:2B88
   807 0015:2B8D   809 0015:2B9A   810 0015:2BAC   811 0015:2BB8
   812 0015:2BC1   814 0015:2BCD   815 0015:2BD7   816 0015:2BDC
   817 0015:2BDE   818 0015:2BE3   819 0015:2BF0   824 0015:2BF4
   825 0015:2C19   827 0015:2C22   828 0015:2C27   829 0015:2C2C
   831 0015:2C59   832 0015:2C69   833 0015:2C91   834 0015:2C94
   836 0015:2C96   841 0015:2C9A   842 0015:2CBF   843 0015:2CF5
   853 0015:2CF9   854 0015:2CFD   855 0015:2D0D   856 0015:2D16
   857 0015:2D20   860 0015:2D24   861 0015:2D28   862 0015:2D36
   865 0015:2D3D   866 0015:2D41   867 0015:2D4E   872 0015:2D55
   873 0015:2D59   874 0015:2D64   875 0015:2D69   876 0015:2D84
   878 0015:2D95   879 0015:2DA8   881 0015:2DD0   902 0015:2DD4
   903 0015:2DD7   904 0015:2DE5   908 0015:2DE7   909 0015:2DEB
   910 0015:2DF5   911 0015:2E04   914 0015:2E0B   915 0015:2E0F
   916 0015:2E19   917 0015:2E28   920 0015:2E2F   921 0015:2E33
   922 0015:2E3D   923 0015:2E4C   927 0015:2E53   928 0015:2E56
   929 0015:2E61   930 0015:2E6C   931 0015:2E77   933 0015:2E79
   934 0015:2E7C   935 0015:2E89

Line numbers for Strings(STRINGS.PAS) segment Strings

   157 0016:00BD   158 0016:00CE   159 0016:00DB   160 0016:00E3
   161 0016:00EC   164 0016:0103   165 0016:0106   166 0016:0109
   167 0016:010B   168 0016:010D   169 0016:010F   170 0016:0111
   172 0016:0113   208 0016:0117   209 0016:011A   210 0016:011D
   211 0016:011F   212 0016:0122   213 0016:0124   214 0016:0125
   215 0016:0126   216 0016:0128   217 0016:012A   218 0016:012C
   219 0016:012E   220 0016:0130   222 0016:0132   227 0016:0136
   228 0016:013A   229 0016:0145   230 0016:0154   232 0016:015A
   233 0016:016A   234 0016:017F   235 0016:0191   236 0016:0193
   239 0016:0197   240 0016:019B   241 0016:01B8   242 0016:01CC
   245 0016:01D2   246 0016:01D5   247 0016:01E7   248 0016:0209
   251 0016:020D   252 0016:0210   253 0016:0222   254 0016:0238
   255 0016:023E   258 0016:0242   259 0016:0246   260 0016:026E
   269 0016:0292   270 0016:0296   271 0016:02A5   272 0016:02DC
   273 0016:02EA   275 0016:0340   276 0016:0394   279 0016:03A6
   280 0016:03AA   281 0016:03EB   286 0016:03F1   287 0016:03F5
   288 0016:0407   289 0016:0419   290 0016:0429   295 0016:042F
   296 0016:0433   297 0016:0445   298 0016:047F   323 0016:0483
   324 0016:0486   325 0016:0489   326 0016:048C   327 0016:048E
   329 0016:0491   334 0016:04C3   335 0016:04C7   336 0016:04CC
   337 0016:04D1   338 0016:04D6   339 0016:04DB   341 0016:04FB
   342 0016:050C   343 0016:0518   344 0016:051C   345 0016:0520
   346 0016:054B   347 0016:0550   348 0016:0553   349 0016:0556
   350 0016:055A   351 0016:055E   354 0016:0570   355 0016:057E
   357 0016:059D   358 0016:05A0   359 0016:05A3   360 0016:05AA
   361 0016:05C1   362 0016:05DD   363 0016:05E1   364 0016:05E7
   365 0016:0612   366 0016:0617   367 0016:061D   368 0016:0625
   370 0016:0657   371 0016:065A   372 0016:065D   373 0016:0660
   374 0016:0667   375 0016:067F   376 0016:069B   377 0016:06AE
   378 0016:06CA   379 0016:06DC   380 0016:06E0   382 0016:06ED
   384 0016:072A   385 0016:072D   386 0016:0730   389 0016:0732
   390 0016:0740   391 0016:0746   392 0016:0760   393 0016:0765
   394 0016:076B   396 0016:07A5   398 0016:07A9   399 0016:07AC
   400 0016:07AE   401 0016:07B1   407 0016:07B3   408 0016:07B6
   410 0016:07B9   411 0016:07BC   416 0016:07CA   417 0016:07CE
   418 0016:07D5   419 0016:07DA   421 0016:07FA   422 0016:084B
   423 0016:0877   424 0016:087A   425 0016:087D   430 0016:0881
   431 0016:0885   432 0016:08A1   433 0016:08A7   435 0016:08B0
   436 0016:08BF   437 0016:08C6   438 0016:08C8   439 0016:08CF
   442 0016:08D1   443 0016:08F5   444 0016:0914   446 0016:0925
   451 0016:092B   452 0016:092F   453 0016:0941   454 0016:0953
   455 0016:0963   458 0016:0967   459 0016:096B   460 0016:097B
   461 0016:098A   462 0016:0999   465 0016:09A3   466 0016:09A6
   467 0016:09A9   468 0016:09AB   469 0016:09AD   470 0016:09AE
   471 0016:09B1   472 0016:09B3   473 0016:09B7   474 0016:09B9
   475 0016:09BB   476 0016:09BC   477 0016:09BE   478 0016:09C0
   479 0016:09C4   480 0016:09C6   481 0016:09C8   482 0016:09C9
   483 0016:09CB   484 0016:09CD   485 0016:09D1   486 0016:09D3
   487 0016:09D5   488 0016:09D6   489 0016:09D8   490 0016:09DA
   491 0016:09DE   492 0016:09E0   493 0016:09E2   494 0016:09E3
   495 0016:09E5   496 0016:09E7   497 0016:09EB   498 0016:09ED
   499 0016:09EF   500 0016:09F0   501 0016:09F2   502 0016:09F5
   507 0016:09F9   508 0016:09FD   509 0016:0A04   510 0016:0A1F
   512 0016:0A2D   513 0016:0A33   514 0016:0A4B   515 0016:0A53

Program entry point at 0001:01C4
